---
triple:          'arm64-apple-darwin'
binary-path:     '/Users/kushalraghuwanshi/Desktop/Order Matching Engine/output/main'
relocations:
  - { offsetInCU: 0xD2C9, offset: 0xD2C9, size: 0x8, addend: 0x0, symName: __ZNSt3__124__put_character_sequenceB7v160006IcNS_11char_traitsIcEEEERNS_13basic_ostreamIT_T0_EES7_PKS4_m, symObjAddr: 0xD198, symBinAddr: 0x10000EC4C, symSize: 0x1F4 }
  - { offsetInCU: 0xE131, offset: 0xE131, size: 0x8, addend: 0x0, symName: __ZNSt3__16copy_nB7v160006IPKcmPcEENS_9enable_ifIXsr33__is_cpp17_random_access_iteratorIT_EE5valueET1_E4typeES5_T0_S6_, symObjAddr: 0xEAF8, symBinAddr: 0x1000105AC, symSize: 0x44 }
  - { offsetInCU: 0xF2B9, offset: 0xF2B9, size: 0x8, addend: 0x0, symName: __ZNSt3__1lsB7v160006INS_11char_traitsIcEEEERNS_13basic_ostreamIcT_EES6_PKc, symObjAddr: 0xB4, symBinAddr: 0x100001B68, symSize: 0x48 }
  - { offsetInCU: 0xF2FF, offset: 0xF2FF, size: 0x8, addend: 0x0, symName: __ZNSt3__119__debug_db_insert_cB7v160006INS_13unordered_mapIiiNS_4hashIiEENS_8equal_toIiEENS_9allocatorINS_4pairIKiiEEEEEEEEvPT_, symObjAddr: 0xDBC, symBinAddr: 0x100002870, symSize: 0x10 }
  - { offsetInCU: 0xF330, offset: 0xF330, size: 0x8, addend: 0x0, symName: __ZNSt3__130__libcpp_is_constant_evaluatedB7v160006Ev, symObjAddr: 0x16A0, symBinAddr: 0x100003154, symSize: 0xC }
  - { offsetInCU: 0xF34D, offset: 0xF34D, size: 0x8, addend: 0x0, symName: __ZNSt3__119__libcpp_deallocateB7v160006EPvmm, symObjAddr: 0x16AC, symBinAddr: 0x100003160, symSize: 0x30 }
  - { offsetInCU: 0xF395, offset: 0xF395, size: 0x8, addend: 0x0, symName: __ZNSt3__127__do_deallocate_handle_sizeB7v160006IJEEEvPvmDpT_, symObjAddr: 0x16DC, symBinAddr: 0x100003190, symSize: 0x28 }
  - { offsetInCU: 0xF3D3, offset: 0xF3D3, size: 0x8, addend: 0x0, symName: __ZNSt3__124__libcpp_operator_deleteB7v160006IJPvEEEvDpT_, symObjAddr: 0x1704, symBinAddr: 0x1000031B8, symSize: 0x24 }
  - { offsetInCU: 0xF408, offset: 0xF408, size: 0x8, addend: 0x0, symName: __ZNSt3__118__debug_db_erase_cB7v160006INS_12__hash_tableINS_17__hash_value_typeIiiEENS_22__unordered_map_hasherIiS3_NS_4hashIiEENS_8equal_toIiEELb1EEENS_21__unordered_map_equalIiS3_S8_S6_Lb1EEENS_9allocatorIS3_EEEEEEvPT_, symObjAddr: 0x18F8, symBinAddr: 0x1000033AC, symSize: 0x10 }
  - { offsetInCU: 0xF46C, offset: 0xF46C, size: 0x8, addend: 0x0, symName: __ZNSt3__13maxB7v160006ImEERKT_S3_S3_, symObjAddr: 0x1FCC, symBinAddr: 0x100003A80, symSize: 0x2C }
  - { offsetInCU: 0xF4AF, offset: 0xF4AF, size: 0x8, addend: 0x0, symName: __ZNSt3__116__is_hash_power2B7v160006Em, symObjAddr: 0x1FF8, symBinAddr: 0x100003AAC, symSize: 0x50 }
  - { offsetInCU: 0xF4DB, offset: 0xF4DB, size: 0x8, addend: 0x0, symName: __ZNSt3__116__next_hash_pow2B7v160006Em, symObjAddr: 0x2048, symBinAddr: 0x100003AFC, symSize: 0x6C }
  - { offsetInCU: 0xF507, offset: 0xF507, size: 0x8, addend: 0x0, symName: __ZNSt3__125__debug_db_invalidate_allB7v160006INS_12__hash_tableINS_17__hash_value_typeIiiEENS_22__unordered_map_hasherIiS3_NS_4hashIiEENS_8equal_toIiEELb1EEENS_21__unordered_map_equalIiS3_S8_S6_Lb1EEENS_9allocatorIS3_EEEEEEvPT_, symObjAddr: 0x219C, symBinAddr: 0x100003C50, symSize: 0x10 }
  - { offsetInCU: 0xF554, offset: 0xF554, size: 0x8, addend: 0x0, symName: __ZNSt3__116__constrain_hashB7v160006Emm, symObjAddr: 0x22CC, symBinAddr: 0x100003D80, symSize: 0x98 }
  - { offsetInCU: 0xF58E, offset: 0xF58E, size: 0x8, addend: 0x0, symName: __ZNSt3__117__libcpp_allocateB7v160006Emm, symObjAddr: 0x2458, symBinAddr: 0x100003F0C, symSize: 0x28 }
  - { offsetInCU: 0xF5CB, offset: 0xF5CB, size: 0x8, addend: 0x0, symName: __ZNSt3__121__libcpp_operator_newB7v160006IJmEEEPvDpT_, symObjAddr: 0x2494, symBinAddr: 0x100003F48, symSize: 0x24 }
  - { offsetInCU: 0xF604, offset: 0xF604, size: 0x8, addend: 0x0, symName: __ZNSt3__13maxB7v160006ImNS_6__lessImmEEEERKT_S5_S5_T0_, symObjAddr: 0x24F0, symBinAddr: 0x100003FA4, symSize: 0x54 }
  - { offsetInCU: 0xF699, offset: 0xF699, size: 0x8, addend: 0x0, symName: __ZNSt3__112__libcpp_clzB7v160006Em, symObjAddr: 0x2578, symBinAddr: 0x10000402C, symSize: 0x1C }
  - { offsetInCU: 0xF6C5, offset: 0xF6C5, size: 0x8, addend: 0x0, symName: __ZNSt3__119__debug_db_insert_cB7v160006INS_6vectorI10PriceLevelNS_9allocatorIS2_EEEEEEvPT_, symObjAddr: 0x29BC, symBinAddr: 0x100004470, symSize: 0x10 }
  - { offsetInCU: 0xF6F6, offset: 0xF6F6, size: 0x8, addend: 0x0, symName: __ZNSt3__119__debug_db_insert_cB7v160006INS_13unordered_mapIdiNS_4hashIdEENS_8equal_toIdEENS_9allocatorINS_4pairIKdiEEEEEEEEvPT_, symObjAddr: 0x2B24, symBinAddr: 0x1000045D8, symSize: 0x10 }
  - { offsetInCU: 0xF727, offset: 0xF727, size: 0x8, addend: 0x0, symName: __ZNSt3__118__debug_db_erase_cB7v160006INS_12__hash_tableINS_17__hash_value_typeIdiEENS_22__unordered_map_hasherIdS3_NS_4hashIdEENS_8equal_toIdEELb1EEENS_21__unordered_map_equalIdS3_S8_S6_Lb1EEENS_9allocatorIS3_EEEEEEvPT_, symObjAddr: 0x357C, symBinAddr: 0x100005030, symSize: 0x10 }
  - { offsetInCU: 0xF78B, offset: 0xF78B, size: 0x8, addend: 0x0, symName: __ZNSt3__13minB7v160006ImEERKT_S3_S3_, symObjAddr: 0x3A38, symBinAddr: 0x1000054EC, symSize: 0x2C }
  - { offsetInCU: 0xF9CF, offset: 0xF9CF, size: 0x8, addend: 0x0, symName: __ZNSt3__13minB7v160006ImNS_6__lessImmEEEERKT_S5_S5_T0_, symObjAddr: 0x3AC4, symBinAddr: 0x100005578, symSize: 0x54 }
  - { offsetInCU: 0xFA29, offset: 0xFA29, size: 0x8, addend: 0x0, symName: __ZNSt3__120__throw_length_errorB7v160006EPKc, symObjAddr: 0x3B70, symBinAddr: 0x100005624, symSize: 0x64 }
  - { offsetInCU: 0xFA51, offset: 0xFA51, size: 0x8, addend: 0x0, symName: __ZNSt3__119__allocate_at_leastB7v160006INS_9allocatorI10PriceLevelEEEENS_19__allocation_resultINS_16allocator_traitsIT_E7pointerEEERS6_m, symObjAddr: 0x3DAC, symBinAddr: 0x100005860, symSize: 0x40 }
  - { offsetInCU: 0xFA94, offset: 0xFA94, size: 0x8, addend: 0x0, symName: __ZNSt3__142__uninitialized_allocator_move_if_noexceptB7v160006INS_9allocatorI10PriceLevelEENS_16reverse_iteratorIPS2_EES6_S6_EET2_RT_T0_T1_S7_, symObjAddr: 0x4088, symBinAddr: 0x100005B3C, symSize: 0x134 }
  - { offsetInCU: 0xFB34, offset: 0xFB34, size: 0x8, addend: 0x0, symName: __ZNSt3__14swapB7v160006IP10PriceLevelEEvRT_S4_, symObjAddr: 0x4208, symBinAddr: 0x100005CBC, symSize: 0x3C }
  - { offsetInCU: 0xFB85, offset: 0xFB85, size: 0x8, addend: 0x0, symName: __ZNSt3__125__debug_db_invalidate_allB7v160006INS_6vectorI10PriceLevelNS_9allocatorIS2_EEEEEEvPT_, symObjAddr: 0x4338, symBinAddr: 0x100005DEC, symSize: 0x10 }
  - { offsetInCU: 0xFBB6, offset: 0xFBB6, size: 0x8, addend: 0x0, symName: __ZNSt3__112__to_addressB7v160006I10PriceLevelEEPT_S3_, symObjAddr: 0x4390, symBinAddr: 0x100005E44, symSize: 0x14 }
  - { offsetInCU: 0xFBEB, offset: 0xFBEB, size: 0x8, addend: 0x0, symName: __ZNSt3__122__make_exception_guardB7v160006INS_29_AllocatorDestroyRangeReverseINS_9allocatorI10PriceLevelEENS_16reverse_iteratorIPS3_EEEEEENS_28__exception_guard_exceptionsIT_EESA_, symObjAddr: 0x43A4, symBinAddr: 0x100005E58, symSize: 0x4C }
  - { offsetInCU: 0xFC21, offset: 0xFC21, size: 0x8, addend: 0x0, symName: __ZNSt3__1neB7v160006IP10PriceLevelS2_EEbRKNS_16reverse_iteratorIT_EERKNS3_IT0_EE, symObjAddr: 0x4434, symBinAddr: 0x100005EE8, symSize: 0x48 }
  - { offsetInCU: 0xFC6D, offset: 0xFC6D, size: 0x8, addend: 0x0, symName: __ZNSt3__112__to_addressB7v160006INS_16reverse_iteratorIP10PriceLevelEEvEENS_5decayIDTclsr19__to_address_helperIT_EE6__callclsr3stdE7declvalIRKS6_EEEEE4typeES8_, symObjAddr: 0x44B0, symBinAddr: 0x100005F64, symSize: 0x24 }
  - { offsetInCU: 0xFCCC, offset: 0xFCCC, size: 0x8, addend: 0x0, symName: __ZNSt3__119__allocator_destroyB7v160006INS_9allocatorI10PriceLevelEENS_16reverse_iteratorINS4_IPS2_EEEES7_EEvRT_T0_T1_, symObjAddr: 0x48D8, symBinAddr: 0x10000638C, symSize: 0x70 }
  - { offsetInCU: 0xFD31, offset: 0xFD31, size: 0x8, addend: 0x0, symName: __ZNSt3__1neB7v160006INS_16reverse_iteratorIP10PriceLevelEES4_EEbRKNS1_IT_EERKNS1_IT0_EE, symObjAddr: 0x4984, symBinAddr: 0x100006438, symSize: 0x60 }
  - { offsetInCU: 0xFD7D, offset: 0xFD7D, size: 0x8, addend: 0x0, symName: __ZNSt3__112__to_addressB7v160006INS_16reverse_iteratorINS1_IP10PriceLevelEEEEvEENS_5decayIDTclsr19__to_address_helperIT_EE6__callclsr3stdE7declvalIRKS7_EEEEE4typeES9_, symObjAddr: 0x4A10, symBinAddr: 0x1000064C4, symSize: 0x24 }
  - { offsetInCU: 0xFDDC, offset: 0xFDDC, size: 0x8, addend: 0x0, symName: __ZNSt3__118__debug_db_erase_cB7v160006INS_6vectorI10PriceLevelNS_9allocatorIS2_EEEEEEvPT_, symObjAddr: 0x53CC, symBinAddr: 0x100006E80, symSize: 0x10 }
  - { offsetInCU: 0xFE0D, offset: 0xFE0D, size: 0x8, addend: 0x0, symName: __ZNSt3__119__debug_db_insert_cB7v160006INS_6vectorI5TradeNS_9allocatorIS2_EEEEEEvPT_, symObjAddr: 0x6220, symBinAddr: 0x100007CD4, symSize: 0x10 }
  - { offsetInCU: 0xFEA4, offset: 0xFEA4, size: 0x8, addend: 0x0, symName: __ZNSt3__112__to_addressB7v160006I5TradeEEPT_S3_, symObjAddr: 0x6A64, symBinAddr: 0x100008518, symSize: 0x14 }
  - { offsetInCU: 0xFED9, offset: 0xFED9, size: 0x8, addend: 0x0, symName: __ZNSt3__119__allocate_at_leastB7v160006INS_9allocatorI5TradeEEEENS_19__allocation_resultINS_16allocator_traitsIT_E7pointerEEERS6_m, symObjAddr: 0x70C4, symBinAddr: 0x100008B78, symSize: 0x40 }
  - { offsetInCU: 0xFF1C, offset: 0xFF1C, size: 0x8, addend: 0x0, symName: __ZNSt3__142__uninitialized_allocator_move_if_noexceptB7v160006INS_9allocatorI5TradeEENS_16reverse_iteratorIPS2_EES6_S2_vEET1_RT_T0_SA_S7_, symObjAddr: 0x7380, symBinAddr: 0x100008E34, symSize: 0xE8 }
  - { offsetInCU: 0xFF99, offset: 0xFF99, size: 0x8, addend: 0x0, symName: __ZNSt3__14swapB7v160006IP5TradeEEvRT_S4_, symObjAddr: 0x74B4, symBinAddr: 0x100008F68, symSize: 0x3C }
  - { offsetInCU: 0xFFEA, offset: 0xFFEA, size: 0x8, addend: 0x0, symName: __ZNSt3__125__debug_db_invalidate_allB7v160006INS_6vectorI5TradeNS_9allocatorIS2_EEEEEEvPT_, symObjAddr: 0x75B8, symBinAddr: 0x10000906C, symSize: 0x10 }
  - { offsetInCU: 0x1001B, offset: 0x1001B, size: 0x8, addend: 0x0, symName: __ZNSt3__1neB7v160006IP5TradeS2_EEbRKNS_16reverse_iteratorIT_EERKNS3_IT0_EE, symObjAddr: 0x7610, symBinAddr: 0x1000090C4, symSize: 0x48 }
  - { offsetInCU: 0x1008C, offset: 0x1008C, size: 0x8, addend: 0x0, symName: __ZNSt3__114__construct_atB7v160006I5TradeJS1_EPS1_EEPT_S4_DpOT0_, symObjAddr: 0x7658, symBinAddr: 0x10000910C, symSize: 0x34 }
  - { offsetInCU: 0x100FC, offset: 0x100FC, size: 0x8, addend: 0x0, symName: __ZNSt3__112__to_addressB7v160006INS_16reverse_iteratorIP5TradeEEvEENS_5decayIDTclsr19__to_address_helperIT_EE6__callclsr3stdE7declvalIRKS6_EEEEE4typeES8_, symObjAddr: 0x768C, symBinAddr: 0x100009140, symSize: 0x24 }
  - { offsetInCU: 0x10132, offset: 0x10132, size: 0x8, addend: 0x0, symName: __ZNSt3__14moveB7v160006INS_16reverse_iteratorIP5TradeEES4_EET0_T_S6_S5_, symObjAddr: 0x76F8, symBinAddr: 0x1000091AC, symSize: 0x78 }
  - { offsetInCU: 0x101B5, offset: 0x101B5, size: 0x8, addend: 0x0, symName: __ZNSt3__16__moveB7v160006INS_17_ClassicAlgPolicyENS_16reverse_iteratorIP5TradeEES5_S5_EENS_4pairIT0_T2_EES7_T1_S8_, symObjAddr: 0x77E0, symBinAddr: 0x100009294, symSize: 0x64 }
  - { offsetInCU: 0x10221, offset: 0x10221, size: 0x8, addend: 0x0, symName: __ZNSt3__123__dispatch_copy_or_moveB7v160006INS_17_ClassicAlgPolicyENS_11__move_loopIS1_EENS_14__move_trivialENS_16reverse_iteratorIP5TradeEES8_S8_EENS_4pairIT2_T4_EESA_T3_SB_, symObjAddr: 0x7844, symBinAddr: 0x1000092F8, symSize: 0x7C }
  - { offsetInCU: 0x1029F, offset: 0x1029F, size: 0x8, addend: 0x0, symName: __ZNSt3__121__unwrap_and_dispatchB7v160006INS_10__overloadINS_11__move_loopINS_17_ClassicAlgPolicyEEENS_14__move_trivialEEENS_16reverse_iteratorIP5TradeEESA_SA_Li0EEENS_4pairIT0_T2_EESC_T1_SD_, symObjAddr: 0x78C0, symBinAddr: 0x100009374, symSize: 0x12C }
  - { offsetInCU: 0x1032F, offset: 0x1032F, size: 0x8, addend: 0x0, symName: __ZNSt3__114__unwrap_rangeB7v160006INS_16reverse_iteratorIP5TradeEES4_EENS_4pairIT0_S6_EET_S8_, symObjAddr: 0x79EC, symBinAddr: 0x1000094A0, symSize: 0x84 }
  - { offsetInCU: 0x10483, offset: 0x10483, size: 0x8, addend: 0x0, symName: __ZNSt3__113__unwrap_iterB7v160006INS_16reverse_iteratorIP5TradeEENS_18__unwrap_iter_implIS4_Lb0EEELi0EEEDTclsrT0_8__unwrapclsr3stdE7declvalIT_EEEES8_, symObjAddr: 0x7B18, symBinAddr: 0x1000095CC, symSize: 0x44 }
  - { offsetInCU: 0x104C7, offset: 0x104C7, size: 0x8, addend: 0x0, symName: __ZNSt3__19make_pairB7v160006INS_16reverse_iteratorIP5TradeEES4_EENS_4pairINS_18__unwrap_ref_decayIT_E4typeENS6_IT0_E4typeEEEOS7_OSA_, symObjAddr: 0x7B5C, symBinAddr: 0x100009610, symSize: 0x38 }
  - { offsetInCU: 0x10516, offset: 0x10516, size: 0x8, addend: 0x0, symName: __ZNSt3__114__rewrap_rangeB7v160006INS_16reverse_iteratorIP5TradeEES4_EET_S5_T0_, symObjAddr: 0x7B94, symBinAddr: 0x100009648, symSize: 0x5C }
  - { offsetInCU: 0x10562, offset: 0x10562, size: 0x8, addend: 0x0, symName: __ZNSt3__113__rewrap_iterB7v160006INS_16reverse_iteratorIP5TradeEES4_NS_18__unwrap_iter_implIS4_Lb0EEEEET_S7_T0_, symObjAddr: 0x7BF0, symBinAddr: 0x1000096A4, symSize: 0x88 }
  - { offsetInCU: 0x10669, offset: 0x10669, size: 0x8, addend: 0x0, symName: __ZNSt3__1eqB7v160006ERKNS_15__hash_iteratorIPNS_11__hash_nodeINS_17__hash_value_typeIdiEEPvEEEES9_, symObjAddr: 0x8330, symBinAddr: 0x100009DE4, symSize: 0x30 }
  - { offsetInCU: 0x106C4, offset: 0x106C4, size: 0x8, addend: 0x0, symName: __ZNSt3__14endlB7v160006IcNS_11char_traitsIcEEEERNS_13basic_ostreamIT_T0_EES7_, symObjAddr: 0x8E5C, symBinAddr: 0x10000A910, symSize: 0x58 }
  - { offsetInCU: 0x10704, offset: 0x10704, size: 0x8, addend: 0x0, symName: __ZNSt3__1neB7v160006IPK5TradeEEbRKNS_11__wrap_iterIT_EES8_, symObjAddr: 0x8F14, symBinAddr: 0x10000A9C8, symSize: 0x34 }
  - { offsetInCU: 0x10747, offset: 0x10747, size: 0x8, addend: 0x0, symName: __ZNSt3__19use_facetB7v160006INS_5ctypeIcEEEERKT_RKNS_6localeE, symObjAddr: 0x906C, symBinAddr: 0x10000AB20, symSize: 0x2C }
  - { offsetInCU: 0x10C16, offset: 0x10C16, size: 0x8, addend: 0x0, symName: __ZNSt3__1eqB7v160006IPK5TradeEEbRKNS_11__wrap_iterIT_EES8_, symObjAddr: 0x9164, symBinAddr: 0x10000AC18, symSize: 0x48 }
  - { offsetInCU: 0x10C59, offset: 0x10C59, size: 0x8, addend: 0x0, symName: __ZNSt3__1neB7v160006ERKNS_19__hash_map_iteratorINS_15__hash_iteratorIPNS_11__hash_nodeINS_17__hash_value_typeIiiEEPvEEEEEESB_, symObjAddr: 0x938C, symBinAddr: 0x10000AE40, symSize: 0x30 }
  - { offsetInCU: 0x10C96, offset: 0x10C96, size: 0x8, addend: 0x0, symName: __ZNSt3__1neB7v160006ERKNS_15__hash_iteratorIPNS_11__hash_nodeINS_17__hash_value_typeIiiEEPvEEEES9_, symObjAddr: 0x9B28, symBinAddr: 0x10000B5DC, symSize: 0x34 }
  - { offsetInCU: 0x10CD3, offset: 0x10CD3, size: 0x8, addend: 0x0, symName: __ZNSt3__1eqB7v160006ERKNS_15__hash_iteratorIPNS_11__hash_nodeINS_17__hash_value_typeIiiEEPvEEEES9_, symObjAddr: 0x9B5C, symBinAddr: 0x10000B610, symSize: 0x30 }
  - { offsetInCU: 0x10DB2, offset: 0x10DB2, size: 0x8, addend: 0x0, symName: __ZNSt3__1neB7v160006ERKNS_19__hash_map_iteratorINS_15__hash_iteratorIPNS_11__hash_nodeINS_17__hash_value_typeIdiEEPvEEEEEESB_, symObjAddr: 0xAEAC, symBinAddr: 0x10000C960, symSize: 0x30 }
  - { offsetInCU: 0x10DEF, offset: 0x10DEF, size: 0x8, addend: 0x0, symName: __ZNSt3__1neB7v160006ERKNS_15__hash_iteratorIPNS_11__hash_nodeINS_17__hash_value_typeIdiEEPvEEEES9_, symObjAddr: 0xB0F4, symBinAddr: 0x10000CBA8, symSize: 0x34 }
  - { offsetInCU: 0x10E4A, offset: 0x10E4A, size: 0x8, addend: 0x0, symName: __ZNSt3__125__debug_db_invalidate_allB7v160006INS_12__hash_tableINS_17__hash_value_typeIdiEENS_22__unordered_map_hasherIdS3_NS_4hashIdEENS_8equal_toIdEELb1EEENS_21__unordered_map_equalIdS3_S8_S6_Lb1EEENS_9allocatorIS3_EEEEEEvPT_, symObjAddr: 0xC100, symBinAddr: 0x10000DBB4, symSize: 0x10 }
  - { offsetInCU: 0x10E7B, offset: 0x10E7B, size: 0x8, addend: 0x0, symName: __ZNSt3__118__debug_db_erase_cB7v160006INS_6vectorI5TradeNS_9allocatorIS2_EEEEEEvPT_, symObjAddr: 0xC8C4, symBinAddr: 0x10000E378, symSize: 0x10 }
  - { offsetInCU: 0x10EAC, offset: 0x10EAC, size: 0x8, addend: 0x0, symName: __ZNSt3__1lsB7v160006IcNS_11char_traitsIcEENS_9allocatorIcEEEERNS_13basic_ostreamIT_T0_EES9_RKNS_12basic_stringIS6_S7_T1_EE, symObjAddr: 0xCF8C, symBinAddr: 0x10000EA40, symSize: 0x4C }
  - { offsetInCU: 0x10F04, offset: 0x10F04, size: 0x8, addend: 0x0, symName: __ZNSt3__116__pad_and_outputB7v160006IcNS_11char_traitsIcEEEENS_19ostreambuf_iteratorIT_T0_EES6_PKS4_S8_S8_RNS_8ios_baseES4_, symObjAddr: 0xD424, symBinAddr: 0x10000EED8, symSize: 0x248 }
  - { offsetInCU: 0x10FD3, offset: 0x10FD3, size: 0x8, addend: 0x0, symName: __ZNSt3__119__debug_db_insert_cB7v160006INS_12basic_stringIcNS_11char_traitsIcEENS_9allocatorIcEEEEEEvPT_, symObjAddr: 0xD8B8, symBinAddr: 0x10000F36C, symSize: 0x10 }
  - { offsetInCU: 0x11004, offset: 0x11004, size: 0x8, addend: 0x0, symName: __ZNSt3__112__to_addressB7v160006IKcEEPT_S3_, symObjAddr: 0xDA8C, symBinAddr: 0x10000F540, symSize: 0x14 }
  - { offsetInCU: 0x1106C, offset: 0x1106C, size: 0x8, addend: 0x0, symName: __ZNSt3__1plB7v160006IcNS_11char_traitsIcEENS_9allocatorIcEEEENS_12basic_stringIT_T0_T1_EERKS9_S6_, symObjAddr: 0xDC60, symBinAddr: 0x10000F714, symSize: 0x110 }
  - { offsetInCU: 0x110FE, offset: 0x110FE, size: 0x8, addend: 0x0, symName: __ZNSt3__1plB7v160006IcNS_11char_traitsIcEENS_9allocatorIcEEEENS_12basic_stringIT_T0_T1_EERKS9_SB_, symObjAddr: 0xDD70, symBinAddr: 0x10000F824, symSize: 0x134 }
  - { offsetInCU: 0x1119F, offset: 0x1119F, size: 0x8, addend: 0x0, symName: __ZNSt3__1plB7v160006IcNS_11char_traitsIcEENS_9allocatorIcEEEENS_12basic_stringIT_T0_T1_EERKS9_PKS6_, symObjAddr: 0xDEA4, symBinAddr: 0x10000F958, symSize: 0x11C }
  - { offsetInCU: 0x11240, offset: 0x11240, size: 0x8, addend: 0x0, symName: __ZNSt3__112__to_addressB7v160006IcEEPT_S2_, symObjAddr: 0xE27C, symBinAddr: 0x10000FD30, symSize: 0x14 }
  - { offsetInCU: 0x112A8, offset: 0x112A8, size: 0x8, addend: 0x0, symName: __ZNSt3__14copyB7v160006IPKcPcEET0_T_S5_S4_, symObjAddr: 0xEB3C, symBinAddr: 0x1000105F0, symSize: 0x40 }
  - { offsetInCU: 0x11302, offset: 0x11302, size: 0x8, addend: 0x0, symName: __ZNSt3__16__copyB7v160006INS_17_ClassicAlgPolicyEPKcS3_PcEENS_4pairIT0_T2_EES6_T1_S7_, symObjAddr: 0xEB7C, symBinAddr: 0x100010630, symSize: 0x44 }
  - { offsetInCU: 0x1136E, offset: 0x1136E, size: 0x8, addend: 0x0, symName: __ZNSt3__123__dispatch_copy_or_moveB7v160006INS_17_ClassicAlgPolicyENS_11__copy_loopIS1_EENS_14__copy_trivialEPKcS6_PcEENS_4pairIT2_T4_EES9_T3_SA_, symObjAddr: 0xEBC0, symBinAddr: 0x100010674, symSize: 0x54 }
  - { offsetInCU: 0x113EC, offset: 0x113EC, size: 0x8, addend: 0x0, symName: __ZNSt3__121__unwrap_and_dispatchB7v160006INS_10__overloadINS_11__copy_loopINS_17_ClassicAlgPolicyEEENS_14__copy_trivialEEEPKcS8_PcLi0EEENS_4pairIT0_T2_EESB_T1_SC_, symObjAddr: 0xEC14, symBinAddr: 0x1000106C8, symSize: 0xB4 }
  - { offsetInCU: 0x1147A, offset: 0x1147A, size: 0x8, addend: 0x0, symName: __ZNSt3__114__unwrap_rangeB7v160006IPKcS2_EENS_4pairIT0_S4_EET_S6_, symObjAddr: 0xECC8, symBinAddr: 0x10001077C, symSize: 0x60 }
  - { offsetInCU: 0x115B9, offset: 0x115B9, size: 0x8, addend: 0x0, symName: __ZNSt3__113__unwrap_iterB7v160006IPcNS_18__unwrap_iter_implIS1_Lb1EEELi0EEEDTclsrT0_8__unwrapclsr3stdE7declvalIT_EEEES5_, symObjAddr: 0xED70, symBinAddr: 0x100010824, symSize: 0x24 }
  - { offsetInCU: 0x115FD, offset: 0x115FD, size: 0x8, addend: 0x0, symName: __ZNSt3__19make_pairB7v160006IPKcPcEENS_4pairINS_18__unwrap_ref_decayIT_E4typeENS5_IT0_E4typeEEEOS6_OS9_, symObjAddr: 0xED94, symBinAddr: 0x100010848, symSize: 0x38 }
  - { offsetInCU: 0x1164C, offset: 0x1164C, size: 0x8, addend: 0x0, symName: __ZNSt3__114__rewrap_rangeB7v160006IPKcS2_EET_S3_T0_, symObjAddr: 0xEDCC, symBinAddr: 0x100010880, symSize: 0x2C }
  - { offsetInCU: 0x11698, offset: 0x11698, size: 0x8, addend: 0x0, symName: __ZNSt3__113__rewrap_iterB7v160006IPcS1_NS_18__unwrap_iter_implIS1_Lb1EEEEET_S4_T0_, symObjAddr: 0xEDF8, symBinAddr: 0x1000108AC, symSize: 0x50 }
  - { offsetInCU: 0x116ED, offset: 0x116ED, size: 0x8, addend: 0x0, symName: __ZNSt3__19make_pairB7v160006IPKcS2_EENS_4pairINS_18__unwrap_ref_decayIT_E4typeENS4_IT0_E4typeEEEOS5_OS8_, symObjAddr: 0xEE48, symBinAddr: 0x1000108FC, symSize: 0x38 }
  - { offsetInCU: 0x1173C, offset: 0x1173C, size: 0x8, addend: 0x0, symName: __ZNSt3__113__unwrap_iterB7v160006IPKcNS_18__unwrap_iter_implIS2_Lb1EEELi0EEEDTclsrT0_8__unwrapclsr3stdE7declvalIT_EEEES6_, symObjAddr: 0xEE80, symBinAddr: 0x100010934, symSize: 0x24 }
  - { offsetInCU: 0x11880, offset: 0x11880, size: 0x8, addend: 0x0, symName: __ZNSt3__119__copy_trivial_implB7v160006IKccEENS_4pairIPT_PT0_EES4_S4_S6_, symObjAddr: 0xEF38, symBinAddr: 0x1000109EC, symSize: 0x7C }
  - { offsetInCU: 0x118E8, offset: 0x118E8, size: 0x8, addend: 0x0, symName: __ZNSt3__19make_pairB7v160006IRPKcPcEENS_4pairINS_18__unwrap_ref_decayIT_E4typeENS6_IT0_E4typeEEEOS7_OSA_, symObjAddr: 0xEFB4, symBinAddr: 0x100010A68, symSize: 0x38 }
  - { offsetInCU: 0x1198A, offset: 0x1198A, size: 0x8, addend: 0x0, symName: __ZNSt3__113__rewrap_iterB7v160006IPKcS2_NS_18__unwrap_iter_implIS2_Lb1EEEEET_S5_T0_, symObjAddr: 0xF080, symBinAddr: 0x100010B34, symSize: 0x50 }
  - { offsetInCU: 0x119DF, offset: 0x119DF, size: 0x8, addend: 0x0, symName: __ZNSt3__16fill_nB7v160006IPcmcEET_S2_T0_RKT1_, symObjAddr: 0xF160, symBinAddr: 0x100010C14, symSize: 0x44 }
  - { offsetInCU: 0x11A42, offset: 0x11A42, size: 0x8, addend: 0x0, symName: __ZNSt3__18__fill_nB7v160006IPcmcEET_S2_T0_RKT1_, symObjAddr: 0xF1A4, symBinAddr: 0x100010C58, symSize: 0x64 }
  - { offsetInCU: 0x11AA5, offset: 0x11AA5, size: 0x8, addend: 0x0, symName: __ZNSt3__121__convert_to_integralB7v160006Em, symObjAddr: 0xF208, symBinAddr: 0x100010CBC, symSize: 0x14 }
  - { offsetInCU: 0x11AD1, offset: 0x11AD1, size: 0x8, addend: 0x0, symName: __ZNSt3__118__constexpr_strlenB7v160006EPKc, symObjAddr: 0xF264, symBinAddr: 0x100010D18, symSize: 0x24 }
  - { offsetInCU: 0x11AFD, offset: 0x11AFD, size: 0x8, addend: 0x0, symName: __ZNSt3__1eqB7v160006ERKNS_25__hash_map_const_iteratorINS_21__hash_const_iteratorIPNS_11__hash_nodeINS_17__hash_value_typeIdiEEPvEEEEEESB_, symObjAddr: 0xFBB4, symBinAddr: 0x100011668, symSize: 0x30 }
  - { offsetInCU: 0x11B3A, offset: 0x11B3A, size: 0x8, addend: 0x0, symName: __ZNSt3__120__throw_out_of_rangeB7v160006EPKc, symObjAddr: 0xFC1C, symBinAddr: 0x1000116D0, symSize: 0x64 }
  - { offsetInCU: 0x11B64, offset: 0x11B64, size: 0x8, addend: 0x0, symName: __ZNSt3__1eqB7v160006ERKNS_21__hash_const_iteratorIPNS_11__hash_nodeINS_17__hash_value_typeIdiEEPvEEEES9_, symObjAddr: 0x1000C, symBinAddr: 0x100011AC0, symSize: 0x30 }
  - { offsetInCU: 0x1226C, offset: 0x1226C, size: 0x8, addend: 0x0, symName: __ZSt28__throw_bad_array_new_lengthB7v160006v, symObjAddr: 0x2424, symBinAddr: 0x100003ED8, symSize: 0x34 }
  - { offsetInCU: 0x13176, offset: 0x13176, size: 0x8, addend: 0x0, symName: __ZNSt3__16vectorI10PriceLevelNS_9allocatorIS1_EEE26__swap_out_circular_bufferERNS_14__split_bufferIS1_RS3_EE, symObjAddr: 0x3894, symBinAddr: 0x100005348, symSize: 0x118 }
  - { offsetInCU: 0x1320F, offset: 0x1320F, size: 0x8, addend: 0x0, symName: __ZNSt3__16vectorI5TradeNS_9allocatorIS1_EEE26__swap_out_circular_bufferERNS_14__split_bufferIS1_RS3_EE, symObjAddr: 0x6C98, symBinAddr: 0x10000874C, symSize: 0x118 }
  - { offsetInCU: 0x15CE3, offset: 0x15CE3, size: 0x8, addend: 0x0, symName: __ZlsRNSt3__113basic_ostreamIcNS_11char_traitsIcEEEERK5Trade, symObjAddr: 0x0, symBinAddr: 0x100001AB4, symSize: 0xB4 }
  - { offsetInCU: 0x15D1E, offset: 0x15D1E, size: 0x8, addend: 0x0, symName: _main, symObjAddr: 0xFC, symBinAddr: 0x100001BB0, symSize: 0x74 }
  - { offsetInCU: 0x1604C, offset: 0x1604C, size: 0x8, addend: 0x0, symName: __ZN6EngineC1Ev, symObjAddr: 0x170, symBinAddr: 0x100001C24, symSize: 0x2C }
  - { offsetInCU: 0x16076, offset: 0x16076, size: 0x8, addend: 0x0, symName: __ZN6Engine7runDemoEv, symObjAddr: 0x19C, symBinAddr: 0x100001C50, symSize: 0x728 }
  - { offsetInCU: 0x1625D, offset: 0x1625D, size: 0x8, addend: 0x0, symName: __ZN6EngineD1Ev, symObjAddr: 0x8C4, symBinAddr: 0x100002378, symSize: 0x2C }
  - { offsetInCU: 0x16289, offset: 0x16289, size: 0x8, addend: 0x0, symName: __ZN6EngineC2Ev, symObjAddr: 0x8FC, symBinAddr: 0x1000023B0, symSize: 0x104 }
  - { offsetInCU: 0x162B3, offset: 0x162B3, size: 0x8, addend: 0x0, symName: __ZN7IEngineC2Ev, symObjAddr: 0xA00, symBinAddr: 0x1000024B4, symSize: 0x24 }
  - { offsetInCU: 0x162DF, offset: 0x162DF, size: 0x8, addend: 0x0, symName: __ZN10OrderIndexC1Ev, symObjAddr: 0xA24, symBinAddr: 0x1000024D8, symSize: 0x2C }
  - { offsetInCU: 0x16309, offset: 0x16309, size: 0x8, addend: 0x0, symName: __ZN9OrderBookC1E4Side, symObjAddr: 0xA50, symBinAddr: 0x100002504, symSize: 0x34 }
  - { offsetInCU: 0x16341, offset: 0x16341, size: 0x8, addend: 0x0, symName: __ZN9OrderBookD1Ev, symObjAddr: 0xA84, symBinAddr: 0x100002538, symSize: 0x2C }
  - { offsetInCU: 0x1636D, offset: 0x1636D, size: 0x8, addend: 0x0, symName: __ZN10OrderIndexD1Ev, symObjAddr: 0xAB0, symBinAddr: 0x100002564, symSize: 0x2C }
  - { offsetInCU: 0x16399, offset: 0x16399, size: 0x8, addend: 0x0, symName: __ZN6Engine5limitERK5Order, symObjAddr: 0xADC, symBinAddr: 0x100002590, symSize: 0x8C }
  - { offsetInCU: 0x163DB, offset: 0x163DB, size: 0x8, addend: 0x0, symName: __ZN6Engine6cancelEi, symObjAddr: 0xB68, symBinAddr: 0x10000261C, symSize: 0xD8 }
  - { offsetInCU: 0x1642B, offset: 0x1642B, size: 0x8, addend: 0x0, symName: __ZN10OrderIndexC2Ev, symObjAddr: 0xC40, symBinAddr: 0x1000026F4, symSize: 0x68 }
  - { offsetInCU: 0x16455, offset: 0x16455, size: 0x8, addend: 0x0, symName: __ZNSt3__113unordered_mapIiiNS_4hashIiEENS_8equal_toIiEENS_9allocatorINS_4pairIKiiEEEEEC1B7v160006Ev, symObjAddr: 0xCA8, symBinAddr: 0x10000275C, symSize: 0x2C }
  - { offsetInCU: 0x1647F, offset: 0x1647F, size: 0x8, addend: 0x0, symName: __ZNSt3__113unordered_mapIiiNS_4hashIiEENS_8equal_toIiEENS_9allocatorINS_4pairIKiiEEEEE7reserveB7v160006Em, symObjAddr: 0xCD4, symBinAddr: 0x100002788, symSize: 0x2C }
  - { offsetInCU: 0x164B4, offset: 0x164B4, size: 0x8, addend: 0x0, symName: __ZNSt3__113unordered_mapIiiNS_4hashIiEENS_8equal_toIiEENS_9allocatorINS_4pairIKiiEEEEED1B7v160006Ev, symObjAddr: 0xD00, symBinAddr: 0x1000027B4, symSize: 0x2C }
  - { offsetInCU: 0x164DE, offset: 0x164DE, size: 0x8, addend: 0x0, symName: __ZNSt3__113unordered_mapIiiNS_4hashIiEENS_8equal_toIiEENS_9allocatorINS_4pairIKiiEEEEEC2B7v160006Ev, symObjAddr: 0xD2C, symBinAddr: 0x1000027E0, symSize: 0x64 }
  - { offsetInCU: 0x16508, offset: 0x16508, size: 0x8, addend: 0x0, symName: __ZNSt3__112__hash_tableINS_17__hash_value_typeIiiEENS_22__unordered_map_hasherIiS2_NS_4hashIiEENS_8equal_toIiEELb1EEENS_21__unordered_map_equalIiS2_S7_S5_Lb1EEENS_9allocatorIS2_EEEC1Ev, symObjAddr: 0xD90, symBinAddr: 0x100002844, symSize: 0x2C }
  - { offsetInCU: 0x16534, offset: 0x16534, size: 0x8, addend: 0x0, symName: __ZNSt3__112__hash_tableINS_17__hash_value_typeIiiEENS_22__unordered_map_hasherIiS2_NS_4hashIiEENS_8equal_toIiEELb1EEENS_21__unordered_map_equalIiS2_S7_S5_Lb1EEENS_9allocatorIS2_EEED1Ev, symObjAddr: 0xDCC, symBinAddr: 0x100002880, symSize: 0x2C }
  - { offsetInCU: 0x16560, offset: 0x16560, size: 0x8, addend: 0x0, symName: __ZNSt3__112__hash_tableINS_17__hash_value_typeIiiEENS_22__unordered_map_hasherIiS2_NS_4hashIiEENS_8equal_toIiEELb1EEENS_21__unordered_map_equalIiS2_S7_S5_Lb1EEENS_9allocatorIS2_EEEC2Ev, symObjAddr: 0xDF8, symBinAddr: 0x1000028AC, symSize: 0xA4 }
  - { offsetInCU: 0x1658C, offset: 0x1658C, size: 0x8, addend: 0x0, symName: __ZNSt3__110unique_ptrIA_PNS_16__hash_node_baseIPNS_11__hash_nodeINS_17__hash_value_typeIiiEEPvEEEENS_25__bucket_list_deallocatorINS_9allocatorIS9_EEEEEC1B7v160006ILb1EvEEv, symObjAddr: 0xE9C, symBinAddr: 0x100002950, symSize: 0x2C }
  - { offsetInCU: 0x165C1, offset: 0x165C1, size: 0x8, addend: 0x0, symName: __ZNSt3__117__compressed_pairINS_16__hash_node_baseIPNS_11__hash_nodeINS_17__hash_value_typeIiiEEPvEEEENS_9allocatorIS6_EEEC1B7v160006ILb1EvEEv, symObjAddr: 0xEC8, symBinAddr: 0x10000297C, symSize: 0x2C }
  - { offsetInCU: 0x16602, offset: 0x16602, size: 0x8, addend: 0x0, symName: __ZNSt3__117__compressed_pairImNS_22__unordered_map_hasherIiNS_17__hash_value_typeIiiEENS_4hashIiEENS_8equal_toIiEELb1EEEEC1B7v160006IiNS_18__default_init_tagEEEOT_OT0_, symObjAddr: 0xEF4, symBinAddr: 0x1000029A8, symSize: 0x3C }
  - { offsetInCU: 0x16660, offset: 0x16660, size: 0x8, addend: 0x0, symName: __ZNSt3__117__compressed_pairIfNS_21__unordered_map_equalIiNS_17__hash_value_typeIiiEENS_8equal_toIiEENS_4hashIiEELb1EEEEC1B7v160006IfNS_18__default_init_tagEEEOT_OT0_, symObjAddr: 0xF30, symBinAddr: 0x1000029E4, symSize: 0x3C }
  - { offsetInCU: 0x166B8, offset: 0x166B8, size: 0x8, addend: 0x0, symName: __ZNSt3__110unique_ptrIA_PNS_16__hash_node_baseIPNS_11__hash_nodeINS_17__hash_value_typeIiiEEPvEEEENS_25__bucket_list_deallocatorINS_9allocatorIS9_EEEEED1B7v160006Ev, symObjAddr: 0xF6C, symBinAddr: 0x100002A20, symSize: 0x2C }
  - { offsetInCU: 0x166E2, offset: 0x166E2, size: 0x8, addend: 0x0, symName: __ZNSt3__110unique_ptrIA_PNS_16__hash_node_baseIPNS_11__hash_nodeINS_17__hash_value_typeIiiEEPvEEEENS_25__bucket_list_deallocatorINS_9allocatorIS9_EEEEEC2B7v160006ILb1EvEEv, symObjAddr: 0xF98, symBinAddr: 0x100002A4C, symSize: 0x50 }
  - { offsetInCU: 0x1671D, offset: 0x1671D, size: 0x8, addend: 0x0, symName: __ZNSt3__117__compressed_pairIPPNS_16__hash_node_baseIPNS_11__hash_nodeINS_17__hash_value_typeIiiEEPvEEEENS_25__bucket_list_deallocatorINS_9allocatorIS9_EEEEEC1B7v160006INS_16__value_init_tagESH_EEOT_OT0_, symObjAddr: 0xFE8, symBinAddr: 0x100002A9C, symSize: 0x3C }
  - { offsetInCU: 0x16775, offset: 0x16775, size: 0x8, addend: 0x0, symName: __ZNSt3__117__compressed_pairIPPNS_16__hash_node_baseIPNS_11__hash_nodeINS_17__hash_value_typeIiiEEPvEEEENS_25__bucket_list_deallocatorINS_9allocatorIS9_EEEEEC2B7v160006INS_16__value_init_tagESH_EEOT_OT0_, symObjAddr: 0x1024, symBinAddr: 0x100002AD8, symSize: 0x40 }
  - { offsetInCU: 0x167CD, offset: 0x167CD, size: 0x8, addend: 0x0, symName: __ZNSt3__122__compressed_pair_elemIPPNS_16__hash_node_baseIPNS_11__hash_nodeINS_17__hash_value_typeIiiEEPvEEEELi0ELb0EEC2B7v160006ENS_16__value_init_tagE, symObjAddr: 0x1064, symBinAddr: 0x100002B18, symSize: 0x18 }
  - { offsetInCU: 0x16802, offset: 0x16802, size: 0x8, addend: 0x0, symName: __ZNSt3__122__compressed_pair_elemINS_25__bucket_list_deallocatorINS_9allocatorIPNS_16__hash_node_baseIPNS_11__hash_nodeINS_17__hash_value_typeIiiEEPvEEEEEEEELi1ELb0EEC2B7v160006ENS_16__value_init_tagE, symObjAddr: 0x107C, symBinAddr: 0x100002B30, symSize: 0x2C }
  - { offsetInCU: 0x16837, offset: 0x16837, size: 0x8, addend: 0x0, symName: __ZNSt3__125__bucket_list_deallocatorINS_9allocatorIPNS_16__hash_node_baseIPNS_11__hash_nodeINS_17__hash_value_typeIiiEEPvEEEEEEEC1B7v160006Ev, symObjAddr: 0x10A8, symBinAddr: 0x100002B5C, symSize: 0x2C }
  - { offsetInCU: 0x16861, offset: 0x16861, size: 0x8, addend: 0x0, symName: __ZNSt3__125__bucket_list_deallocatorINS_9allocatorIPNS_16__hash_node_baseIPNS_11__hash_nodeINS_17__hash_value_typeIiiEEPvEEEEEEEC2B7v160006Ev, symObjAddr: 0x10D4, symBinAddr: 0x100002B88, symSize: 0x38 }
  - { offsetInCU: 0x1688B, offset: 0x1688B, size: 0x8, addend: 0x0, symName: __ZNSt3__117__compressed_pairImNS_9allocatorIPNS_16__hash_node_baseIPNS_11__hash_nodeINS_17__hash_value_typeIiiEEPvEEEEEEEC1B7v160006IiNS_18__default_init_tagEEEOT_OT0_, symObjAddr: 0x110C, symBinAddr: 0x100002BC0, symSize: 0x3C }
  - { offsetInCU: 0x168E3, offset: 0x168E3, size: 0x8, addend: 0x0, symName: __ZNSt3__117__compressed_pairImNS_9allocatorIPNS_16__hash_node_baseIPNS_11__hash_nodeINS_17__hash_value_typeIiiEEPvEEEEEEEC2B7v160006IiNS_18__default_init_tagEEEOT_OT0_, symObjAddr: 0x1148, symBinAddr: 0x100002BFC, symSize: 0x40 }
  - { offsetInCU: 0x1693B, offset: 0x1693B, size: 0x8, addend: 0x0, symName: __ZNSt3__122__compressed_pair_elemImLi0ELb0EEC2B7v160006IivEEOT_, symObjAddr: 0x1188, symBinAddr: 0x100002C3C, symSize: 0x24 }
  - { offsetInCU: 0x1697D, offset: 0x1697D, size: 0x8, addend: 0x0, symName: __ZNSt3__122__compressed_pair_elemINS_9allocatorIPNS_16__hash_node_baseIPNS_11__hash_nodeINS_17__hash_value_typeIiiEEPvEEEEEELi1ELb1EEC2B7v160006ENS_18__default_init_tagE, symObjAddr: 0x11AC, symBinAddr: 0x100002C60, symSize: 0x2C }
  - { offsetInCU: 0x169B2, offset: 0x169B2, size: 0x8, addend: 0x0, symName: __ZNSt3__19allocatorIPNS_16__hash_node_baseIPNS_11__hash_nodeINS_17__hash_value_typeIiiEEPvEEEEEC2B7v160006Ev, symObjAddr: 0x11D8, symBinAddr: 0x100002C8C, symSize: 0x2C }
  - { offsetInCU: 0x169DC, offset: 0x169DC, size: 0x8, addend: 0x0, symName: __ZNSt3__116__non_trivial_ifILb1ENS_9allocatorIPNS_16__hash_node_baseIPNS_11__hash_nodeINS_17__hash_value_typeIiiEEPvEEEEEEEC2B7v160006Ev, symObjAddr: 0x1204, symBinAddr: 0x100002CB8, symSize: 0x14 }
  - { offsetInCU: 0x16A06, offset: 0x16A06, size: 0x8, addend: 0x0, symName: __ZNSt3__117__compressed_pairINS_16__hash_node_baseIPNS_11__hash_nodeINS_17__hash_value_typeIiiEEPvEEEENS_9allocatorIS6_EEEC2B7v160006ILb1EvEEv, symObjAddr: 0x1218, symBinAddr: 0x100002CCC, symSize: 0x34 }
  - { offsetInCU: 0x16A3B, offset: 0x16A3B, size: 0x8, addend: 0x0, symName: __ZNSt3__122__compressed_pair_elemINS_16__hash_node_baseIPNS_11__hash_nodeINS_17__hash_value_typeIiiEEPvEEEELi0ELb0EEC2B7v160006ENS_16__value_init_tagE, symObjAddr: 0x124C, symBinAddr: 0x100002D00, symSize: 0x2C }
  - { offsetInCU: 0x16A70, offset: 0x16A70, size: 0x8, addend: 0x0, symName: __ZNSt3__122__compressed_pair_elemINS_9allocatorINS_11__hash_nodeINS_17__hash_value_typeIiiEEPvEEEELi1ELb1EEC2B7v160006ENS_16__value_init_tagE, symObjAddr: 0x1278, symBinAddr: 0x100002D2C, symSize: 0x2C }
  - { offsetInCU: 0x16AA5, offset: 0x16AA5, size: 0x8, addend: 0x0, symName: __ZNSt3__116__hash_node_baseIPNS_11__hash_nodeINS_17__hash_value_typeIiiEEPvEEEC1B7v160006Ev, symObjAddr: 0x12A4, symBinAddr: 0x100002D58, symSize: 0x2C }
  - { offsetInCU: 0x16ACF, offset: 0x16ACF, size: 0x8, addend: 0x0, symName: __ZNSt3__116__hash_node_baseIPNS_11__hash_nodeINS_17__hash_value_typeIiiEEPvEEEC2B7v160006Ev, symObjAddr: 0x12D0, symBinAddr: 0x100002D84, symSize: 0x18 }
  - { offsetInCU: 0x16AF9, offset: 0x16AF9, size: 0x8, addend: 0x0, symName: __ZNSt3__19allocatorINS_11__hash_nodeINS_17__hash_value_typeIiiEEPvEEEC2B7v160006Ev, symObjAddr: 0x12E8, symBinAddr: 0x100002D9C, symSize: 0x2C }
  - { offsetInCU: 0x16B23, offset: 0x16B23, size: 0x8, addend: 0x0, symName: __ZNSt3__116__non_trivial_ifILb1ENS_9allocatorINS_11__hash_nodeINS_17__hash_value_typeIiiEEPvEEEEEC2B7v160006Ev, symObjAddr: 0x1314, symBinAddr: 0x100002DC8, symSize: 0x14 }
  - { offsetInCU: 0x16B4D, offset: 0x16B4D, size: 0x8, addend: 0x0, symName: __ZNSt3__117__compressed_pairImNS_22__unordered_map_hasherIiNS_17__hash_value_typeIiiEENS_4hashIiEENS_8equal_toIiEELb1EEEEC2B7v160006IiNS_18__default_init_tagEEEOT_OT0_, symObjAddr: 0x1328, symBinAddr: 0x100002DDC, symSize: 0x40 }
  - { offsetInCU: 0x16BA5, offset: 0x16BA5, size: 0x8, addend: 0x0, symName: __ZNSt3__122__compressed_pair_elemINS_22__unordered_map_hasherIiNS_17__hash_value_typeIiiEENS_4hashIiEENS_8equal_toIiEELb1EEELi1ELb1EEC2B7v160006ENS_18__default_init_tagE, symObjAddr: 0x1368, symBinAddr: 0x100002E1C, symSize: 0x2C }
  - { offsetInCU: 0x16BDA, offset: 0x16BDA, size: 0x8, addend: 0x0, symName: __ZNSt3__122__unordered_map_hasherIiNS_17__hash_value_typeIiiEENS_4hashIiEENS_8equal_toIiEELb1EEC2B7v160006Ev, symObjAddr: 0x1394, symBinAddr: 0x100002E48, symSize: 0x14 }
  - { offsetInCU: 0x16C04, offset: 0x16C04, size: 0x8, addend: 0x0, symName: __ZNSt3__117__compressed_pairIfNS_21__unordered_map_equalIiNS_17__hash_value_typeIiiEENS_8equal_toIiEENS_4hashIiEELb1EEEEC2B7v160006IfNS_18__default_init_tagEEEOT_OT0_, symObjAddr: 0x13A8, symBinAddr: 0x100002E5C, symSize: 0x40 }
  - { offsetInCU: 0x16C5C, offset: 0x16C5C, size: 0x8, addend: 0x0, symName: __ZNSt3__122__compressed_pair_elemIfLi0ELb0EEC2B7v160006IfvEEOT_, symObjAddr: 0x13E8, symBinAddr: 0x100002E9C, symSize: 0x24 }
  - { offsetInCU: 0x16C9E, offset: 0x16C9E, size: 0x8, addend: 0x0, symName: __ZNSt3__122__compressed_pair_elemINS_21__unordered_map_equalIiNS_17__hash_value_typeIiiEENS_8equal_toIiEENS_4hashIiEELb1EEELi1ELb1EEC2B7v160006ENS_18__default_init_tagE, symObjAddr: 0x140C, symBinAddr: 0x100002EC0, symSize: 0x2C }
  - { offsetInCU: 0x16CD3, offset: 0x16CD3, size: 0x8, addend: 0x0, symName: __ZNSt3__121__unordered_map_equalIiNS_17__hash_value_typeIiiEENS_8equal_toIiEENS_4hashIiEELb1EEC2B7v160006Ev, symObjAddr: 0x1438, symBinAddr: 0x100002EEC, symSize: 0x14 }
  - { offsetInCU: 0x16CFD, offset: 0x16CFD, size: 0x8, addend: 0x0, symName: __ZNSt3__110unique_ptrIA_PNS_16__hash_node_baseIPNS_11__hash_nodeINS_17__hash_value_typeIiiEEPvEEEENS_25__bucket_list_deallocatorINS_9allocatorIS9_EEEEED2B7v160006Ev, symObjAddr: 0x144C, symBinAddr: 0x100002F00, symSize: 0x30 }
  - { offsetInCU: 0x16D27, offset: 0x16D27, size: 0x8, addend: 0x0, symName: __ZNSt3__110unique_ptrIA_PNS_16__hash_node_baseIPNS_11__hash_nodeINS_17__hash_value_typeIiiEEPvEEEENS_25__bucket_list_deallocatorINS_9allocatorIS9_EEEEE5resetB7v160006EDn, symObjAddr: 0x147C, symBinAddr: 0x100002F30, symSize: 0x6C }
  - { offsetInCU: 0x16D67, offset: 0x16D67, size: 0x8, addend: 0x0, symName: __ZNSt3__117__compressed_pairIPPNS_16__hash_node_baseIPNS_11__hash_nodeINS_17__hash_value_typeIiiEEPvEEEENS_25__bucket_list_deallocatorINS_9allocatorIS9_EEEEE5firstB7v160006Ev, symObjAddr: 0x14E8, symBinAddr: 0x100002F9C, symSize: 0x24 }
  - { offsetInCU: 0x16D8D, offset: 0x16D8D, size: 0x8, addend: 0x0, symName: __ZNSt3__117__compressed_pairIPPNS_16__hash_node_baseIPNS_11__hash_nodeINS_17__hash_value_typeIiiEEPvEEEENS_25__bucket_list_deallocatorINS_9allocatorIS9_EEEEE6secondB7v160006Ev, symObjAddr: 0x150C, symBinAddr: 0x100002FC0, symSize: 0x28 }
  - { offsetInCU: 0x16DB3, offset: 0x16DB3, size: 0x8, addend: 0x0, symName: __ZNSt3__125__bucket_list_deallocatorINS_9allocatorIPNS_16__hash_node_baseIPNS_11__hash_nodeINS_17__hash_value_typeIiiEEPvEEEEEEEclB7v160006EPSA_, symObjAddr: 0x1534, symBinAddr: 0x100002FE8, symSize: 0x58 }
  - { offsetInCU: 0x16DE8, offset: 0x16DE8, size: 0x8, addend: 0x0, symName: __ZNSt3__122__compressed_pair_elemIPPNS_16__hash_node_baseIPNS_11__hash_nodeINS_17__hash_value_typeIiiEEPvEEEELi0ELb0EE5__getB7v160006Ev, symObjAddr: 0x158C, symBinAddr: 0x100003040, symSize: 0x14 }
  - { offsetInCU: 0x16E0E, offset: 0x16E0E, size: 0x8, addend: 0x0, symName: __ZNSt3__122__compressed_pair_elemINS_25__bucket_list_deallocatorINS_9allocatorIPNS_16__hash_node_baseIPNS_11__hash_nodeINS_17__hash_value_typeIiiEEPvEEEEEEEELi1ELb0EE5__getB7v160006Ev, symObjAddr: 0x15A0, symBinAddr: 0x100003054, symSize: 0x14 }
  - { offsetInCU: 0x16E34, offset: 0x16E34, size: 0x8, addend: 0x0, symName: __ZNSt3__116allocator_traitsINS_9allocatorIPNS_16__hash_node_baseIPNS_11__hash_nodeINS_17__hash_value_typeIiiEEPvEEEEEEE10deallocateB7v160006ERSB_PSA_m, symObjAddr: 0x15B4, symBinAddr: 0x100003068, symSize: 0x34 }
  - { offsetInCU: 0x16E76, offset: 0x16E76, size: 0x8, addend: 0x0, symName: __ZNSt3__125__bucket_list_deallocatorINS_9allocatorIPNS_16__hash_node_baseIPNS_11__hash_nodeINS_17__hash_value_typeIiiEEPvEEEEEEE7__allocB7v160006Ev, symObjAddr: 0x15E8, symBinAddr: 0x10000309C, symSize: 0x24 }
  - { offsetInCU: 0x16E9C, offset: 0x16E9C, size: 0x8, addend: 0x0, symName: __ZNSt3__125__bucket_list_deallocatorINS_9allocatorIPNS_16__hash_node_baseIPNS_11__hash_nodeINS_17__hash_value_typeIiiEEPvEEEEEEE4sizeB7v160006Ev, symObjAddr: 0x160C, symBinAddr: 0x1000030C0, symSize: 0x24 }
  - { offsetInCU: 0x16EC2, offset: 0x16EC2, size: 0x8, addend: 0x0, symName: __ZNSt3__19allocatorIPNS_16__hash_node_baseIPNS_11__hash_nodeINS_17__hash_value_typeIiiEEPvEEEEE10deallocateB7v160006EPS9_m, symObjAddr: 0x1630, symBinAddr: 0x1000030E4, symSize: 0x70 }
  - { offsetInCU: 0x16F04, offset: 0x16F04, size: 0x8, addend: 0x0, symName: __ZNSt3__117__compressed_pairImNS_9allocatorIPNS_16__hash_node_baseIPNS_11__hash_nodeINS_17__hash_value_typeIiiEEPvEEEEEEE6secondB7v160006Ev, symObjAddr: 0x1728, symBinAddr: 0x1000031DC, symSize: 0x24 }
  - { offsetInCU: 0x16F2A, offset: 0x16F2A, size: 0x8, addend: 0x0, symName: __ZNSt3__122__compressed_pair_elemINS_9allocatorIPNS_16__hash_node_baseIPNS_11__hash_nodeINS_17__hash_value_typeIiiEEPvEEEEEELi1ELb1EE5__getB7v160006Ev, symObjAddr: 0x174C, symBinAddr: 0x100003200, symSize: 0x14 }
  - { offsetInCU: 0x16F50, offset: 0x16F50, size: 0x8, addend: 0x0, symName: __ZNSt3__117__compressed_pairImNS_9allocatorIPNS_16__hash_node_baseIPNS_11__hash_nodeINS_17__hash_value_typeIiiEEPvEEEEEEE5firstB7v160006Ev, symObjAddr: 0x1760, symBinAddr: 0x100003214, symSize: 0x24 }
  - { offsetInCU: 0x16F76, offset: 0x16F76, size: 0x8, addend: 0x0, symName: __ZNSt3__122__compressed_pair_elemImLi0ELb0EE5__getB7v160006Ev, symObjAddr: 0x1784, symBinAddr: 0x100003238, symSize: 0x14 }
  - { offsetInCU: 0x16F9C, offset: 0x16F9C, size: 0x8, addend: 0x0, symName: __ZNSt3__112__hash_tableINS_17__hash_value_typeIiiEENS_22__unordered_map_hasherIiS2_NS_4hashIiEENS_8equal_toIiEELb1EEENS_21__unordered_map_equalIiS2_S7_S5_Lb1EEENS_9allocatorIS2_EEED2Ev, symObjAddr: 0x1798, symBinAddr: 0x10000324C, symSize: 0x80 }
  - { offsetInCU: 0x16FC8, offset: 0x16FC8, size: 0x8, addend: 0x0, symName: __ZNSt3__112__hash_tableINS_17__hash_value_typeIiiEENS_22__unordered_map_hasherIiS2_NS_4hashIiEENS_8equal_toIiEELb1EEENS_21__unordered_map_equalIiS2_S7_S5_Lb1EEENS_9allocatorIS2_EEE17__deallocate_nodeEPNS_16__hash_node_baseIPNS_11__hash_nodeIS2_PvEEEE, symObjAddr: 0x1818, symBinAddr: 0x1000032CC, symSize: 0xBC }
  - { offsetInCU: 0x17032, offset: 0x17032, size: 0x8, addend: 0x0, symName: __ZNSt3__117__compressed_pairINS_16__hash_node_baseIPNS_11__hash_nodeINS_17__hash_value_typeIiiEEPvEEEENS_9allocatorIS6_EEE5firstB7v160006Ev, symObjAddr: 0x18D4, symBinAddr: 0x100003388, symSize: 0x24 }
  - { offsetInCU: 0x17058, offset: 0x17058, size: 0x8, addend: 0x0, symName: __ZNSt3__112__hash_tableINS_17__hash_value_typeIiiEENS_22__unordered_map_hasherIiS2_NS_4hashIiEENS_8equal_toIiEELb1EEENS_21__unordered_map_equalIiS2_S7_S5_Lb1EEENS_9allocatorIS2_EEE12__node_allocB7v160006Ev, symObjAddr: 0x1908, symBinAddr: 0x1000033BC, symSize: 0x28 }
  - { offsetInCU: 0x1707E, offset: 0x1707E, size: 0x8, addend: 0x0, symName: __ZNSt3__116__hash_node_baseIPNS_11__hash_nodeINS_17__hash_value_typeIiiEEPvEEE8__upcastB7v160006Ev, symObjAddr: 0x1930, symBinAddr: 0x1000033E4, symSize: 0x24 }
  - { offsetInCU: 0x170A4, offset: 0x170A4, size: 0x8, addend: 0x0, symName: __ZNSt3__116allocator_traitsINS_9allocatorINS_11__hash_nodeINS_17__hash_value_typeIiiEEPvEEEEE7destroyB7v160006INS_4pairIKiiEEvvEEvRS7_PT_, symObjAddr: 0x1954, symBinAddr: 0x100003408, symSize: 0x14 }
  - { offsetInCU: 0x170DE, offset: 0x170DE, size: 0x8, addend: 0x0, symName: __ZNSt3__122__hash_key_value_typesINS_17__hash_value_typeIiiEEE9__get_ptrB7v160006ERS2_, symObjAddr: 0x1968, symBinAddr: 0x10000341C, symSize: 0x24 }
  - { offsetInCU: 0x17101, offset: 0x17101, size: 0x8, addend: 0x0, symName: __ZNSt3__116allocator_traitsINS_9allocatorINS_11__hash_nodeINS_17__hash_value_typeIiiEEPvEEEEE10deallocateB7v160006ERS7_PS6_m, symObjAddr: 0x198C, symBinAddr: 0x100003440, symSize: 0x34 }
  - { offsetInCU: 0x17143, offset: 0x17143, size: 0x8, addend: 0x0, symName: __ZNSt3__117__compressed_pairINS_16__hash_node_baseIPNS_11__hash_nodeINS_17__hash_value_typeIiiEEPvEEEENS_9allocatorIS6_EEE6secondB7v160006Ev, symObjAddr: 0x19C0, symBinAddr: 0x100003474, symSize: 0x24 }
  - { offsetInCU: 0x17169, offset: 0x17169, size: 0x8, addend: 0x0, symName: __ZNSt3__122__compressed_pair_elemINS_9allocatorINS_11__hash_nodeINS_17__hash_value_typeIiiEEPvEEEELi1ELb1EE5__getB7v160006Ev, symObjAddr: 0x19E4, symBinAddr: 0x100003498, symSize: 0x14 }
  - { offsetInCU: 0x1718F, offset: 0x1718F, size: 0x8, addend: 0x0, symName: __ZNSt3__114pointer_traitsIPNS_16__hash_node_baseIPNS_11__hash_nodeINS_17__hash_value_typeIiiEEPvEEEEE10pointer_toB7v160006ERS8_, symObjAddr: 0x19F8, symBinAddr: 0x1000034AC, symSize: 0x14 }
  - { offsetInCU: 0x171B2, offset: 0x171B2, size: 0x8, addend: 0x0, symName: __ZNSt3__117__hash_value_typeIiiE11__get_valueB7v160006Ev, symObjAddr: 0x1A0C, symBinAddr: 0x1000034C0, symSize: 0x14 }
  - { offsetInCU: 0x171D8, offset: 0x171D8, size: 0x8, addend: 0x0, symName: __ZNSt3__19allocatorINS_11__hash_nodeINS_17__hash_value_typeIiiEEPvEEE10deallocateB7v160006EPS5_m, symObjAddr: 0x1A20, symBinAddr: 0x1000034D4, symSize: 0x74 }
  - { offsetInCU: 0x1721A, offset: 0x1721A, size: 0x8, addend: 0x0, symName: __ZNSt3__122__compressed_pair_elemINS_16__hash_node_baseIPNS_11__hash_nodeINS_17__hash_value_typeIiiEEPvEEEELi0ELb0EE5__getB7v160006Ev, symObjAddr: 0x1A94, symBinAddr: 0x100003548, symSize: 0x14 }
  - { offsetInCU: 0x17240, offset: 0x17240, size: 0x8, addend: 0x0, symName: __ZNSt3__112__hash_tableINS_17__hash_value_typeIiiEENS_22__unordered_map_hasherIiS2_NS_4hashIiEENS_8equal_toIiEELb1EEENS_21__unordered_map_equalIiS2_S7_S5_Lb1EEENS_9allocatorIS2_EEE16__reserve_uniqueB7v160006Em, symObjAddr: 0x1AA8, symBinAddr: 0x10000355C, symSize: 0x58 }
  - { offsetInCU: 0x17275, offset: 0x17275, size: 0x8, addend: 0x0, symName: __ZNSt3__112__hash_tableINS_17__hash_value_typeIiiEENS_22__unordered_map_hasherIiS2_NS_4hashIiEENS_8equal_toIiEELb1EEENS_21__unordered_map_equalIiS2_S7_S5_Lb1EEENS_9allocatorIS2_EEE15__rehash_uniqueB7v160006Em, symObjAddr: 0x1B00, symBinAddr: 0x1000035B4, symSize: 0x2C }
  - { offsetInCU: 0x172A9, offset: 0x172A9, size: 0x8, addend: 0x0, symName: __Z4ceilB7v160006f, symObjAddr: 0x1B2C, symBinAddr: 0x1000035E0, symSize: 0x18 }
  - { offsetInCU: 0x172D8, offset: 0x172D8, size: 0x8, addend: 0x0, symName: __ZNSt3__112__hash_tableINS_17__hash_value_typeIiiEENS_22__unordered_map_hasherIiS2_NS_4hashIiEENS_8equal_toIiEELb1EEENS_21__unordered_map_equalIiS2_S7_S5_Lb1EEENS_9allocatorIS2_EEE15max_load_factorB7v160006Ev, symObjAddr: 0x1B44, symBinAddr: 0x1000035F8, symSize: 0x28 }
  - { offsetInCU: 0x172FE, offset: 0x172FE, size: 0x8, addend: 0x0, symName: __ZNSt3__112__hash_tableINS_17__hash_value_typeIiiEENS_22__unordered_map_hasherIiS2_NS_4hashIiEENS_8equal_toIiEELb1EEENS_21__unordered_map_equalIiS2_S7_S5_Lb1EEENS_9allocatorIS2_EEE8__rehashILb1EEEvm, symObjAddr: 0x1B6C, symBinAddr: 0x100003620, symSize: 0x1A8 }
  - { offsetInCU: 0x1734E, offset: 0x1734E, size: 0x8, addend: 0x0, symName: __ZNKSt3__112__hash_tableINS_17__hash_value_typeIiiEENS_22__unordered_map_hasherIiS2_NS_4hashIiEENS_8equal_toIiEELb1EEENS_21__unordered_map_equalIiS2_S7_S5_Lb1EEENS_9allocatorIS2_EEE12bucket_countB7v160006Ev, symObjAddr: 0x1D14, symBinAddr: 0x1000037C8, symSize: 0x28 }
  - { offsetInCU: 0x17374, offset: 0x17374, size: 0x8, addend: 0x0, symName: __ZNSt3__112__hash_tableINS_17__hash_value_typeIiiEENS_22__unordered_map_hasherIiS2_NS_4hashIiEENS_8equal_toIiEELb1EEENS_21__unordered_map_equalIiS2_S7_S5_Lb1EEENS_9allocatorIS2_EEE11__do_rehashILb1EEEvm, symObjAddr: 0x1D3C, symBinAddr: 0x1000037F0, symSize: 0x290 }
  - { offsetInCU: 0x1745B, offset: 0x1745B, size: 0x8, addend: 0x0, symName: __ZNSt3__112__hash_tableINS_17__hash_value_typeIiiEENS_22__unordered_map_hasherIiS2_NS_4hashIiEENS_8equal_toIiEELb1EEENS_21__unordered_map_equalIiS2_S7_S5_Lb1EEENS_9allocatorIS2_EEE4sizeB7v160006Ev, symObjAddr: 0x20B4, symBinAddr: 0x100003B68, symSize: 0x28 }
  - { offsetInCU: 0x17481, offset: 0x17481, size: 0x8, addend: 0x0, symName: __ZNKSt3__110unique_ptrIA_PNS_16__hash_node_baseIPNS_11__hash_nodeINS_17__hash_value_typeIiiEEPvEEEENS_25__bucket_list_deallocatorINS_9allocatorIS9_EEEEE11get_deleterB7v160006Ev, symObjAddr: 0x20DC, symBinAddr: 0x100003B90, symSize: 0x24 }
  - { offsetInCU: 0x174A7, offset: 0x174A7, size: 0x8, addend: 0x0, symName: __ZNKSt3__125__bucket_list_deallocatorINS_9allocatorIPNS_16__hash_node_baseIPNS_11__hash_nodeINS_17__hash_value_typeIiiEEPvEEEEEEE4sizeB7v160006Ev, symObjAddr: 0x2100, symBinAddr: 0x100003BB4, symSize: 0x28 }
  - { offsetInCU: 0x174CD, offset: 0x174CD, size: 0x8, addend: 0x0, symName: __ZNKSt3__117__compressed_pairIPPNS_16__hash_node_baseIPNS_11__hash_nodeINS_17__hash_value_typeIiiEEPvEEEENS_25__bucket_list_deallocatorINS_9allocatorIS9_EEEEE6secondB7v160006Ev, symObjAddr: 0x2128, symBinAddr: 0x100003BDC, symSize: 0x28 }
  - { offsetInCU: 0x174F3, offset: 0x174F3, size: 0x8, addend: 0x0, symName: __ZNKSt3__122__compressed_pair_elemINS_25__bucket_list_deallocatorINS_9allocatorIPNS_16__hash_node_baseIPNS_11__hash_nodeINS_17__hash_value_typeIiiEEPvEEEEEEEELi1ELb0EE5__getB7v160006Ev, symObjAddr: 0x2150, symBinAddr: 0x100003C04, symSize: 0x14 }
  - { offsetInCU: 0x17519, offset: 0x17519, size: 0x8, addend: 0x0, symName: __ZNKSt3__117__compressed_pairImNS_9allocatorIPNS_16__hash_node_baseIPNS_11__hash_nodeINS_17__hash_value_typeIiiEEPvEEEEEEE5firstB7v160006Ev, symObjAddr: 0x2164, symBinAddr: 0x100003C18, symSize: 0x24 }
  - { offsetInCU: 0x1753F, offset: 0x1753F, size: 0x8, addend: 0x0, symName: __ZNKSt3__122__compressed_pair_elemImLi0ELb0EE5__getB7v160006Ev, symObjAddr: 0x2188, symBinAddr: 0x100003C3C, symSize: 0x14 }
  - { offsetInCU: 0x17565, offset: 0x17565, size: 0x8, addend: 0x0, symName: __ZNSt3__110unique_ptrIA_PNS_16__hash_node_baseIPNS_11__hash_nodeINS_17__hash_value_typeIiiEEPvEEEENS_25__bucket_list_deallocatorINS_9allocatorIS9_EEEEE11get_deleterB7v160006Ev, symObjAddr: 0x21AC, symBinAddr: 0x100003C60, symSize: 0x24 }
  - { offsetInCU: 0x1758B, offset: 0x1758B, size: 0x8, addend: 0x0, symName: __ZNSt3__110unique_ptrIA_PNS_16__hash_node_baseIPNS_11__hash_nodeINS_17__hash_value_typeIiiEEPvEEEENS_25__bucket_list_deallocatorINS_9allocatorIS9_EEEEE5resetB7v160006IPS9_EENS_9enable_ifIXsr28_CheckArrayPointerConversionIT_EE5valueEvE4typeESJ_, symObjAddr: 0x21D0, symBinAddr: 0x100003C84, symSize: 0x78 }
  - { offsetInCU: 0x175D8, offset: 0x175D8, size: 0x8, addend: 0x0, symName: __ZNSt3__116allocator_traitsINS_9allocatorIPNS_16__hash_node_baseIPNS_11__hash_nodeINS_17__hash_value_typeIiiEEPvEEEEEEE8allocateB7v160006ERSB_m, symObjAddr: 0x2248, symBinAddr: 0x100003CFC, symSize: 0x2C }
  - { offsetInCU: 0x1760B, offset: 0x1760B, size: 0x8, addend: 0x0, symName: __ZNKSt3__110unique_ptrIA_PNS_16__hash_node_baseIPNS_11__hash_nodeINS_17__hash_value_typeIiiEEPvEEEENS_25__bucket_list_deallocatorINS_9allocatorIS9_EEEEEixB7v160006Em, symObjAddr: 0x2274, symBinAddr: 0x100003D28, symSize: 0x34 }
  - { offsetInCU: 0x17640, offset: 0x17640, size: 0x8, addend: 0x0, symName: __ZNSt3__116__hash_node_baseIPNS_11__hash_nodeINS_17__hash_value_typeIiiEEPvEEE5__ptrB7v160006Ev, symObjAddr: 0x22A8, symBinAddr: 0x100003D5C, symSize: 0x24 }
  - { offsetInCU: 0x17666, offset: 0x17666, size: 0x8, addend: 0x0, symName: __ZNKSt3__116__hash_node_baseIPNS_11__hash_nodeINS_17__hash_value_typeIiiEEPvEEE6__hashB7v160006Ev, symObjAddr: 0x2364, symBinAddr: 0x100003E18, symSize: 0x18 }
  - { offsetInCU: 0x1768C, offset: 0x1768C, size: 0x8, addend: 0x0, symName: __ZNSt3__19allocatorIPNS_16__hash_node_baseIPNS_11__hash_nodeINS_17__hash_value_typeIiiEEPvEEEEE8allocateB7v160006Em, symObjAddr: 0x237C, symBinAddr: 0x100003E30, symSize: 0x84 }
  - { offsetInCU: 0x176CA, offset: 0x176CA, size: 0x8, addend: 0x0, symName: __ZNSt3__116allocator_traitsINS_9allocatorIPNS_16__hash_node_baseIPNS_11__hash_nodeINS_17__hash_value_typeIiiEEPvEEEEEEE8max_sizeB7v160006ISB_vEEmRKSB_, symObjAddr: 0x2400, symBinAddr: 0x100003EB4, symSize: 0x24 }
  - { offsetInCU: 0x176F8, offset: 0x176F8, size: 0x8, addend: 0x0, symName: __ZNKSt3__19allocatorIPNS_16__hash_node_baseIPNS_11__hash_nodeINS_17__hash_value_typeIiiEEPvEEEEE8max_sizeB7v160006Ev, symObjAddr: 0x2480, symBinAddr: 0x100003F34, symSize: 0x14 }
  - { offsetInCU: 0x1771E, offset: 0x1771E, size: 0x8, addend: 0x0, symName: __ZNKSt3__117__compressed_pairIPPNS_16__hash_node_baseIPNS_11__hash_nodeINS_17__hash_value_typeIiiEEPvEEEENS_25__bucket_list_deallocatorINS_9allocatorIS9_EEEEE5firstB7v160006Ev, symObjAddr: 0x24B8, symBinAddr: 0x100003F6C, symSize: 0x24 }
  - { offsetInCU: 0x17744, offset: 0x17744, size: 0x8, addend: 0x0, symName: __ZNKSt3__122__compressed_pair_elemIPPNS_16__hash_node_baseIPNS_11__hash_nodeINS_17__hash_value_typeIiiEEPvEEEELi0ELb0EE5__getB7v160006Ev, symObjAddr: 0x24DC, symBinAddr: 0x100003F90, symSize: 0x14 }
  - { offsetInCU: 0x17774, offset: 0x17774, size: 0x8, addend: 0x0, symName: __ZNKSt3__16__lessImmEclB7v160006ERKmS3_, symObjAddr: 0x2544, symBinAddr: 0x100003FF8, symSize: 0x34 }
  - { offsetInCU: 0x177B6, offset: 0x177B6, size: 0x8, addend: 0x0, symName: __ZNSt3__117__compressed_pairImNS_22__unordered_map_hasherIiNS_17__hash_value_typeIiiEENS_4hashIiEENS_8equal_toIiEELb1EEEE5firstB7v160006Ev, symObjAddr: 0x2594, symBinAddr: 0x100004048, symSize: 0x24 }
  - { offsetInCU: 0x177DC, offset: 0x177DC, size: 0x8, addend: 0x0, symName: __ZNSt3__117__compressed_pairIfNS_21__unordered_map_equalIiNS_17__hash_value_typeIiiEENS_8equal_toIiEENS_4hashIiEELb1EEEE5firstB7v160006Ev, symObjAddr: 0x25B8, symBinAddr: 0x10000406C, symSize: 0x24 }
  - { offsetInCU: 0x17802, offset: 0x17802, size: 0x8, addend: 0x0, symName: __ZNSt3__122__compressed_pair_elemIfLi0ELb0EE5__getB7v160006Ev, symObjAddr: 0x25DC, symBinAddr: 0x100004090, symSize: 0x14 }
  - { offsetInCU: 0x17828, offset: 0x17828, size: 0x8, addend: 0x0, symName: __ZNSt3__113unordered_mapIiiNS_4hashIiEENS_8equal_toIiEENS_9allocatorINS_4pairIKiiEEEEED2B7v160006Ev, symObjAddr: 0x25F0, symBinAddr: 0x1000040A4, symSize: 0x2C }
  - { offsetInCU: 0x17852, offset: 0x17852, size: 0x8, addend: 0x0, symName: __ZN9OrderBookC2E4Side, symObjAddr: 0x261C, symBinAddr: 0x1000040D0, symSize: 0x10C }
  - { offsetInCU: 0x178A7, offset: 0x178A7, size: 0x8, addend: 0x0, symName: __ZNSt3__16vectorI10PriceLevelNS_9allocatorIS1_EEEC1B7v160006Ev, symObjAddr: 0x2728, symBinAddr: 0x1000041DC, symSize: 0x2C }
  - { offsetInCU: 0x178D1, offset: 0x178D1, size: 0x8, addend: 0x0, symName: __ZNSt3__113unordered_mapIdiNS_4hashIdEENS_8equal_toIdEENS_9allocatorINS_4pairIKdiEEEEEC1B7v160006Ev, symObjAddr: 0x2754, symBinAddr: 0x100004208, symSize: 0x2C }
  - { offsetInCU: 0x178FB, offset: 0x178FB, size: 0x8, addend: 0x0, symName: __ZNSt3__16vectorI10PriceLevelNS_9allocatorIS1_EEE7reserveEm, symObjAddr: 0x2780, symBinAddr: 0x100004234, symSize: 0xF0 }
  - { offsetInCU: 0x1795C, offset: 0x1795C, size: 0x8, addend: 0x0, symName: __ZNSt3__16vectorI10PriceLevelNS_9allocatorIS1_EEE12emplace_backIJR4SideEEEvDpOT_, symObjAddr: 0x2870, symBinAddr: 0x100004324, symSize: 0x6C }
  - { offsetInCU: 0x1799E, offset: 0x1799E, size: 0x8, addend: 0x0, symName: __ZNSt3__113unordered_mapIdiNS_4hashIdEENS_8equal_toIdEENS_9allocatorINS_4pairIKdiEEEEED1B7v160006Ev, symObjAddr: 0x28DC, symBinAddr: 0x100004390, symSize: 0x2C }
  - { offsetInCU: 0x179C8, offset: 0x179C8, size: 0x8, addend: 0x0, symName: __ZNSt3__16vectorI10PriceLevelNS_9allocatorIS1_EEED1B7v160006Ev, symObjAddr: 0x2908, symBinAddr: 0x1000043BC, symSize: 0x2C }
  - { offsetInCU: 0x179F2, offset: 0x179F2, size: 0x8, addend: 0x0, symName: __ZNSt3__16vectorI10PriceLevelNS_9allocatorIS1_EEEC2B7v160006Ev, symObjAddr: 0x2934, symBinAddr: 0x1000043E8, symSize: 0x4C }
  - { offsetInCU: 0x17A22, offset: 0x17A22, size: 0x8, addend: 0x0, symName: __ZNSt3__117__compressed_pairIP10PriceLevelNS_9allocatorIS1_EEEC1B7v160006IDnNS_18__default_init_tagEEEOT_OT0_, symObjAddr: 0x2980, symBinAddr: 0x100004434, symSize: 0x3C }
  - { offsetInCU: 0x17A7A, offset: 0x17A7A, size: 0x8, addend: 0x0, symName: __ZNSt3__117__compressed_pairIP10PriceLevelNS_9allocatorIS1_EEEC2B7v160006IDnNS_18__default_init_tagEEEOT_OT0_, symObjAddr: 0x29CC, symBinAddr: 0x100004480, symSize: 0x40 }
  - { offsetInCU: 0x17AD2, offset: 0x17AD2, size: 0x8, addend: 0x0, symName: __ZNSt3__122__compressed_pair_elemIP10PriceLevelLi0ELb0EEC2B7v160006IDnvEEOT_, symObjAddr: 0x2A0C, symBinAddr: 0x1000044C0, symSize: 0x1C }
  - { offsetInCU: 0x17B14, offset: 0x17B14, size: 0x8, addend: 0x0, symName: __ZNSt3__122__compressed_pair_elemINS_9allocatorI10PriceLevelEELi1ELb1EEC2B7v160006ENS_18__default_init_tagE, symObjAddr: 0x2A28, symBinAddr: 0x1000044DC, symSize: 0x2C }
  - { offsetInCU: 0x17B49, offset: 0x17B49, size: 0x8, addend: 0x0, symName: __ZNSt3__19allocatorI10PriceLevelEC2B7v160006Ev, symObjAddr: 0x2A54, symBinAddr: 0x100004508, symSize: 0x2C }
  - { offsetInCU: 0x17B73, offset: 0x17B73, size: 0x8, addend: 0x0, symName: __ZNSt3__116__non_trivial_ifILb1ENS_9allocatorI10PriceLevelEEEC2B7v160006Ev, symObjAddr: 0x2A80, symBinAddr: 0x100004534, symSize: 0x14 }
  - { offsetInCU: 0x17B9D, offset: 0x17B9D, size: 0x8, addend: 0x0, symName: __ZNSt3__113unordered_mapIdiNS_4hashIdEENS_8equal_toIdEENS_9allocatorINS_4pairIKdiEEEEEC2B7v160006Ev, symObjAddr: 0x2A94, symBinAddr: 0x100004548, symSize: 0x64 }
  - { offsetInCU: 0x17BC7, offset: 0x17BC7, size: 0x8, addend: 0x0, symName: __ZNSt3__112__hash_tableINS_17__hash_value_typeIdiEENS_22__unordered_map_hasherIdS2_NS_4hashIdEENS_8equal_toIdEELb1EEENS_21__unordered_map_equalIdS2_S7_S5_Lb1EEENS_9allocatorIS2_EEEC1Ev, symObjAddr: 0x2AF8, symBinAddr: 0x1000045AC, symSize: 0x2C }
  - { offsetInCU: 0x17BF3, offset: 0x17BF3, size: 0x8, addend: 0x0, symName: __ZNSt3__112__hash_tableINS_17__hash_value_typeIdiEENS_22__unordered_map_hasherIdS2_NS_4hashIdEENS_8equal_toIdEELb1EEENS_21__unordered_map_equalIdS2_S7_S5_Lb1EEENS_9allocatorIS2_EEED1Ev, symObjAddr: 0x2B34, symBinAddr: 0x1000045E8, symSize: 0x2C }
  - { offsetInCU: 0x17C1F, offset: 0x17C1F, size: 0x8, addend: 0x0, symName: __ZNSt3__112__hash_tableINS_17__hash_value_typeIdiEENS_22__unordered_map_hasherIdS2_NS_4hashIdEENS_8equal_toIdEELb1EEENS_21__unordered_map_equalIdS2_S7_S5_Lb1EEENS_9allocatorIS2_EEEC2Ev, symObjAddr: 0x2B60, symBinAddr: 0x100004614, symSize: 0xA4 }
  - { offsetInCU: 0x17C4B, offset: 0x17C4B, size: 0x8, addend: 0x0, symName: __ZNSt3__110unique_ptrIA_PNS_16__hash_node_baseIPNS_11__hash_nodeINS_17__hash_value_typeIdiEEPvEEEENS_25__bucket_list_deallocatorINS_9allocatorIS9_EEEEEC1B7v160006ILb1EvEEv, symObjAddr: 0x2C04, symBinAddr: 0x1000046B8, symSize: 0x2C }
  - { offsetInCU: 0x17C80, offset: 0x17C80, size: 0x8, addend: 0x0, symName: __ZNSt3__117__compressed_pairINS_16__hash_node_baseIPNS_11__hash_nodeINS_17__hash_value_typeIdiEEPvEEEENS_9allocatorIS6_EEEC1B7v160006ILb1EvEEv, symObjAddr: 0x2C30, symBinAddr: 0x1000046E4, symSize: 0x2C }
  - { offsetInCU: 0x17CB5, offset: 0x17CB5, size: 0x8, addend: 0x0, symName: __ZNSt3__117__compressed_pairImNS_22__unordered_map_hasherIdNS_17__hash_value_typeIdiEENS_4hashIdEENS_8equal_toIdEELb1EEEEC1B7v160006IiNS_18__default_init_tagEEEOT_OT0_, symObjAddr: 0x2C5C, symBinAddr: 0x100004710, symSize: 0x3C }
  - { offsetInCU: 0x17D0D, offset: 0x17D0D, size: 0x8, addend: 0x0, symName: __ZNSt3__117__compressed_pairIfNS_21__unordered_map_equalIdNS_17__hash_value_typeIdiEENS_8equal_toIdEENS_4hashIdEELb1EEEEC1B7v160006IfNS_18__default_init_tagEEEOT_OT0_, symObjAddr: 0x2C98, symBinAddr: 0x10000474C, symSize: 0x3C }
  - { offsetInCU: 0x17D65, offset: 0x17D65, size: 0x8, addend: 0x0, symName: __ZNSt3__110unique_ptrIA_PNS_16__hash_node_baseIPNS_11__hash_nodeINS_17__hash_value_typeIdiEEPvEEEENS_25__bucket_list_deallocatorINS_9allocatorIS9_EEEEED1B7v160006Ev, symObjAddr: 0x2CD4, symBinAddr: 0x100004788, symSize: 0x2C }
  - { offsetInCU: 0x17D8F, offset: 0x17D8F, size: 0x8, addend: 0x0, symName: __ZNSt3__110unique_ptrIA_PNS_16__hash_node_baseIPNS_11__hash_nodeINS_17__hash_value_typeIdiEEPvEEEENS_25__bucket_list_deallocatorINS_9allocatorIS9_EEEEEC2B7v160006ILb1EvEEv, symObjAddr: 0x2D00, symBinAddr: 0x1000047B4, symSize: 0x50 }
  - { offsetInCU: 0x17DC4, offset: 0x17DC4, size: 0x8, addend: 0x0, symName: __ZNSt3__117__compressed_pairIPPNS_16__hash_node_baseIPNS_11__hash_nodeINS_17__hash_value_typeIdiEEPvEEEENS_25__bucket_list_deallocatorINS_9allocatorIS9_EEEEEC1B7v160006INS_16__value_init_tagESH_EEOT_OT0_, symObjAddr: 0x2D50, symBinAddr: 0x100004804, symSize: 0x3C }
  - { offsetInCU: 0x17E1C, offset: 0x17E1C, size: 0x8, addend: 0x0, symName: __ZNSt3__117__compressed_pairIPPNS_16__hash_node_baseIPNS_11__hash_nodeINS_17__hash_value_typeIdiEEPvEEEENS_25__bucket_list_deallocatorINS_9allocatorIS9_EEEEEC2B7v160006INS_16__value_init_tagESH_EEOT_OT0_, symObjAddr: 0x2D8C, symBinAddr: 0x100004840, symSize: 0x40 }
  - { offsetInCU: 0x17E74, offset: 0x17E74, size: 0x8, addend: 0x0, symName: __ZNSt3__122__compressed_pair_elemIPPNS_16__hash_node_baseIPNS_11__hash_nodeINS_17__hash_value_typeIdiEEPvEEEELi0ELb0EEC2B7v160006ENS_16__value_init_tagE, symObjAddr: 0x2DCC, symBinAddr: 0x100004880, symSize: 0x18 }
  - { offsetInCU: 0x17EA9, offset: 0x17EA9, size: 0x8, addend: 0x0, symName: __ZNSt3__122__compressed_pair_elemINS_25__bucket_list_deallocatorINS_9allocatorIPNS_16__hash_node_baseIPNS_11__hash_nodeINS_17__hash_value_typeIdiEEPvEEEEEEEELi1ELb0EEC2B7v160006ENS_16__value_init_tagE, symObjAddr: 0x2DE4, symBinAddr: 0x100004898, symSize: 0x2C }
  - { offsetInCU: 0x17EDE, offset: 0x17EDE, size: 0x8, addend: 0x0, symName: __ZNSt3__125__bucket_list_deallocatorINS_9allocatorIPNS_16__hash_node_baseIPNS_11__hash_nodeINS_17__hash_value_typeIdiEEPvEEEEEEEC1B7v160006Ev, symObjAddr: 0x2E10, symBinAddr: 0x1000048C4, symSize: 0x2C }
  - { offsetInCU: 0x17F08, offset: 0x17F08, size: 0x8, addend: 0x0, symName: __ZNSt3__125__bucket_list_deallocatorINS_9allocatorIPNS_16__hash_node_baseIPNS_11__hash_nodeINS_17__hash_value_typeIdiEEPvEEEEEEEC2B7v160006Ev, symObjAddr: 0x2E3C, symBinAddr: 0x1000048F0, symSize: 0x38 }
  - { offsetInCU: 0x17F32, offset: 0x17F32, size: 0x8, addend: 0x0, symName: __ZNSt3__117__compressed_pairImNS_9allocatorIPNS_16__hash_node_baseIPNS_11__hash_nodeINS_17__hash_value_typeIdiEEPvEEEEEEEC1B7v160006IiNS_18__default_init_tagEEEOT_OT0_, symObjAddr: 0x2E74, symBinAddr: 0x100004928, symSize: 0x3C }
  - { offsetInCU: 0x17F8A, offset: 0x17F8A, size: 0x8, addend: 0x0, symName: __ZNSt3__117__compressed_pairImNS_9allocatorIPNS_16__hash_node_baseIPNS_11__hash_nodeINS_17__hash_value_typeIdiEEPvEEEEEEEC2B7v160006IiNS_18__default_init_tagEEEOT_OT0_, symObjAddr: 0x2EB0, symBinAddr: 0x100004964, symSize: 0x40 }
  - { offsetInCU: 0x17FE2, offset: 0x17FE2, size: 0x8, addend: 0x0, symName: __ZNSt3__122__compressed_pair_elemINS_9allocatorIPNS_16__hash_node_baseIPNS_11__hash_nodeINS_17__hash_value_typeIdiEEPvEEEEEELi1ELb1EEC2B7v160006ENS_18__default_init_tagE, symObjAddr: 0x2EF0, symBinAddr: 0x1000049A4, symSize: 0x2C }
  - { offsetInCU: 0x18017, offset: 0x18017, size: 0x8, addend: 0x0, symName: __ZNSt3__19allocatorIPNS_16__hash_node_baseIPNS_11__hash_nodeINS_17__hash_value_typeIdiEEPvEEEEEC2B7v160006Ev, symObjAddr: 0x2F1C, symBinAddr: 0x1000049D0, symSize: 0x2C }
  - { offsetInCU: 0x18041, offset: 0x18041, size: 0x8, addend: 0x0, symName: __ZNSt3__116__non_trivial_ifILb1ENS_9allocatorIPNS_16__hash_node_baseIPNS_11__hash_nodeINS_17__hash_value_typeIdiEEPvEEEEEEEC2B7v160006Ev, symObjAddr: 0x2F48, symBinAddr: 0x1000049FC, symSize: 0x14 }
  - { offsetInCU: 0x1806B, offset: 0x1806B, size: 0x8, addend: 0x0, symName: __ZNSt3__117__compressed_pairINS_16__hash_node_baseIPNS_11__hash_nodeINS_17__hash_value_typeIdiEEPvEEEENS_9allocatorIS6_EEEC2B7v160006ILb1EvEEv, symObjAddr: 0x2F5C, symBinAddr: 0x100004A10, symSize: 0x34 }
  - { offsetInCU: 0x180A0, offset: 0x180A0, size: 0x8, addend: 0x0, symName: __ZNSt3__122__compressed_pair_elemINS_16__hash_node_baseIPNS_11__hash_nodeINS_17__hash_value_typeIdiEEPvEEEELi0ELb0EEC2B7v160006ENS_16__value_init_tagE, symObjAddr: 0x2F90, symBinAddr: 0x100004A44, symSize: 0x2C }
  - { offsetInCU: 0x180D5, offset: 0x180D5, size: 0x8, addend: 0x0, symName: __ZNSt3__122__compressed_pair_elemINS_9allocatorINS_11__hash_nodeINS_17__hash_value_typeIdiEEPvEEEELi1ELb1EEC2B7v160006ENS_16__value_init_tagE, symObjAddr: 0x2FBC, symBinAddr: 0x100004A70, symSize: 0x2C }
  - { offsetInCU: 0x1810A, offset: 0x1810A, size: 0x8, addend: 0x0, symName: __ZNSt3__116__hash_node_baseIPNS_11__hash_nodeINS_17__hash_value_typeIdiEEPvEEEC1B7v160006Ev, symObjAddr: 0x2FE8, symBinAddr: 0x100004A9C, symSize: 0x2C }
  - { offsetInCU: 0x18134, offset: 0x18134, size: 0x8, addend: 0x0, symName: __ZNSt3__116__hash_node_baseIPNS_11__hash_nodeINS_17__hash_value_typeIdiEEPvEEEC2B7v160006Ev, symObjAddr: 0x3014, symBinAddr: 0x100004AC8, symSize: 0x18 }
  - { offsetInCU: 0x1815E, offset: 0x1815E, size: 0x8, addend: 0x0, symName: __ZNSt3__19allocatorINS_11__hash_nodeINS_17__hash_value_typeIdiEEPvEEEC2B7v160006Ev, symObjAddr: 0x302C, symBinAddr: 0x100004AE0, symSize: 0x2C }
  - { offsetInCU: 0x18188, offset: 0x18188, size: 0x8, addend: 0x0, symName: __ZNSt3__116__non_trivial_ifILb1ENS_9allocatorINS_11__hash_nodeINS_17__hash_value_typeIdiEEPvEEEEEC2B7v160006Ev, symObjAddr: 0x3058, symBinAddr: 0x100004B0C, symSize: 0x14 }
  - { offsetInCU: 0x181B2, offset: 0x181B2, size: 0x8, addend: 0x0, symName: __ZNSt3__117__compressed_pairImNS_22__unordered_map_hasherIdNS_17__hash_value_typeIdiEENS_4hashIdEENS_8equal_toIdEELb1EEEEC2B7v160006IiNS_18__default_init_tagEEEOT_OT0_, symObjAddr: 0x306C, symBinAddr: 0x100004B20, symSize: 0x40 }
  - { offsetInCU: 0x1820A, offset: 0x1820A, size: 0x8, addend: 0x0, symName: __ZNSt3__122__compressed_pair_elemINS_22__unordered_map_hasherIdNS_17__hash_value_typeIdiEENS_4hashIdEENS_8equal_toIdEELb1EEELi1ELb1EEC2B7v160006ENS_18__default_init_tagE, symObjAddr: 0x30AC, symBinAddr: 0x100004B60, symSize: 0x2C }
  - { offsetInCU: 0x1823F, offset: 0x1823F, size: 0x8, addend: 0x0, symName: __ZNSt3__122__unordered_map_hasherIdNS_17__hash_value_typeIdiEENS_4hashIdEENS_8equal_toIdEELb1EEC2B7v160006Ev, symObjAddr: 0x30D8, symBinAddr: 0x100004B8C, symSize: 0x14 }
  - { offsetInCU: 0x18269, offset: 0x18269, size: 0x8, addend: 0x0, symName: __ZNSt3__117__compressed_pairIfNS_21__unordered_map_equalIdNS_17__hash_value_typeIdiEENS_8equal_toIdEENS_4hashIdEELb1EEEEC2B7v160006IfNS_18__default_init_tagEEEOT_OT0_, symObjAddr: 0x30EC, symBinAddr: 0x100004BA0, symSize: 0x40 }
  - { offsetInCU: 0x182C1, offset: 0x182C1, size: 0x8, addend: 0x0, symName: __ZNSt3__122__compressed_pair_elemINS_21__unordered_map_equalIdNS_17__hash_value_typeIdiEENS_8equal_toIdEENS_4hashIdEELb1EEELi1ELb1EEC2B7v160006ENS_18__default_init_tagE, symObjAddr: 0x312C, symBinAddr: 0x100004BE0, symSize: 0x2C }
  - { offsetInCU: 0x182F6, offset: 0x182F6, size: 0x8, addend: 0x0, symName: __ZNSt3__121__unordered_map_equalIdNS_17__hash_value_typeIdiEENS_8equal_toIdEENS_4hashIdEELb1EEC2B7v160006Ev, symObjAddr: 0x3158, symBinAddr: 0x100004C0C, symSize: 0x14 }
  - { offsetInCU: 0x18320, offset: 0x18320, size: 0x8, addend: 0x0, symName: __ZNSt3__110unique_ptrIA_PNS_16__hash_node_baseIPNS_11__hash_nodeINS_17__hash_value_typeIdiEEPvEEEENS_25__bucket_list_deallocatorINS_9allocatorIS9_EEEEED2B7v160006Ev, symObjAddr: 0x316C, symBinAddr: 0x100004C20, symSize: 0x30 }
  - { offsetInCU: 0x1834A, offset: 0x1834A, size: 0x8, addend: 0x0, symName: __ZNSt3__110unique_ptrIA_PNS_16__hash_node_baseIPNS_11__hash_nodeINS_17__hash_value_typeIdiEEPvEEEENS_25__bucket_list_deallocatorINS_9allocatorIS9_EEEEE5resetB7v160006EDn, symObjAddr: 0x319C, symBinAddr: 0x100004C50, symSize: 0x6C }
  - { offsetInCU: 0x1838A, offset: 0x1838A, size: 0x8, addend: 0x0, symName: __ZNSt3__117__compressed_pairIPPNS_16__hash_node_baseIPNS_11__hash_nodeINS_17__hash_value_typeIdiEEPvEEEENS_25__bucket_list_deallocatorINS_9allocatorIS9_EEEEE5firstB7v160006Ev, symObjAddr: 0x3208, symBinAddr: 0x100004CBC, symSize: 0x24 }
  - { offsetInCU: 0x183B0, offset: 0x183B0, size: 0x8, addend: 0x0, symName: __ZNSt3__117__compressed_pairIPPNS_16__hash_node_baseIPNS_11__hash_nodeINS_17__hash_value_typeIdiEEPvEEEENS_25__bucket_list_deallocatorINS_9allocatorIS9_EEEEE6secondB7v160006Ev, symObjAddr: 0x322C, symBinAddr: 0x100004CE0, symSize: 0x28 }
  - { offsetInCU: 0x183D6, offset: 0x183D6, size: 0x8, addend: 0x0, symName: __ZNSt3__125__bucket_list_deallocatorINS_9allocatorIPNS_16__hash_node_baseIPNS_11__hash_nodeINS_17__hash_value_typeIdiEEPvEEEEEEEclB7v160006EPSA_, symObjAddr: 0x3254, symBinAddr: 0x100004D08, symSize: 0x58 }
  - { offsetInCU: 0x1840B, offset: 0x1840B, size: 0x8, addend: 0x0, symName: __ZNSt3__122__compressed_pair_elemIPPNS_16__hash_node_baseIPNS_11__hash_nodeINS_17__hash_value_typeIdiEEPvEEEELi0ELb0EE5__getB7v160006Ev, symObjAddr: 0x32AC, symBinAddr: 0x100004D60, symSize: 0x14 }
  - { offsetInCU: 0x18431, offset: 0x18431, size: 0x8, addend: 0x0, symName: __ZNSt3__122__compressed_pair_elemINS_25__bucket_list_deallocatorINS_9allocatorIPNS_16__hash_node_baseIPNS_11__hash_nodeINS_17__hash_value_typeIdiEEPvEEEEEEEELi1ELb0EE5__getB7v160006Ev, symObjAddr: 0x32C0, symBinAddr: 0x100004D74, symSize: 0x14 }
  - { offsetInCU: 0x18457, offset: 0x18457, size: 0x8, addend: 0x0, symName: __ZNSt3__116allocator_traitsINS_9allocatorIPNS_16__hash_node_baseIPNS_11__hash_nodeINS_17__hash_value_typeIdiEEPvEEEEEEE10deallocateB7v160006ERSB_PSA_m, symObjAddr: 0x32D4, symBinAddr: 0x100004D88, symSize: 0x34 }
  - { offsetInCU: 0x18499, offset: 0x18499, size: 0x8, addend: 0x0, symName: __ZNSt3__125__bucket_list_deallocatorINS_9allocatorIPNS_16__hash_node_baseIPNS_11__hash_nodeINS_17__hash_value_typeIdiEEPvEEEEEEE7__allocB7v160006Ev, symObjAddr: 0x3308, symBinAddr: 0x100004DBC, symSize: 0x24 }
  - { offsetInCU: 0x184BF, offset: 0x184BF, size: 0x8, addend: 0x0, symName: __ZNSt3__125__bucket_list_deallocatorINS_9allocatorIPNS_16__hash_node_baseIPNS_11__hash_nodeINS_17__hash_value_typeIdiEEPvEEEEEEE4sizeB7v160006Ev, symObjAddr: 0x332C, symBinAddr: 0x100004DE0, symSize: 0x24 }
  - { offsetInCU: 0x184E5, offset: 0x184E5, size: 0x8, addend: 0x0, symName: __ZNSt3__19allocatorIPNS_16__hash_node_baseIPNS_11__hash_nodeINS_17__hash_value_typeIdiEEPvEEEEE10deallocateB7v160006EPS9_m, symObjAddr: 0x3350, symBinAddr: 0x100004E04, symSize: 0x70 }
  - { offsetInCU: 0x18527, offset: 0x18527, size: 0x8, addend: 0x0, symName: __ZNSt3__117__compressed_pairImNS_9allocatorIPNS_16__hash_node_baseIPNS_11__hash_nodeINS_17__hash_value_typeIdiEEPvEEEEEEE6secondB7v160006Ev, symObjAddr: 0x33C0, symBinAddr: 0x100004E74, symSize: 0x24 }
  - { offsetInCU: 0x1854D, offset: 0x1854D, size: 0x8, addend: 0x0, symName: __ZNSt3__122__compressed_pair_elemINS_9allocatorIPNS_16__hash_node_baseIPNS_11__hash_nodeINS_17__hash_value_typeIdiEEPvEEEEEELi1ELb1EE5__getB7v160006Ev, symObjAddr: 0x33E4, symBinAddr: 0x100004E98, symSize: 0x14 }
  - { offsetInCU: 0x18573, offset: 0x18573, size: 0x8, addend: 0x0, symName: __ZNSt3__117__compressed_pairImNS_9allocatorIPNS_16__hash_node_baseIPNS_11__hash_nodeINS_17__hash_value_typeIdiEEPvEEEEEEE5firstB7v160006Ev, symObjAddr: 0x33F8, symBinAddr: 0x100004EAC, symSize: 0x24 }
  - { offsetInCU: 0x18599, offset: 0x18599, size: 0x8, addend: 0x0, symName: __ZNSt3__112__hash_tableINS_17__hash_value_typeIdiEENS_22__unordered_map_hasherIdS2_NS_4hashIdEENS_8equal_toIdEELb1EEENS_21__unordered_map_equalIdS2_S7_S5_Lb1EEENS_9allocatorIS2_EEED2Ev, symObjAddr: 0x341C, symBinAddr: 0x100004ED0, symSize: 0x80 }
  - { offsetInCU: 0x185C5, offset: 0x185C5, size: 0x8, addend: 0x0, symName: __ZNSt3__112__hash_tableINS_17__hash_value_typeIdiEENS_22__unordered_map_hasherIdS2_NS_4hashIdEENS_8equal_toIdEELb1EEENS_21__unordered_map_equalIdS2_S7_S5_Lb1EEENS_9allocatorIS2_EEE17__deallocate_nodeEPNS_16__hash_node_baseIPNS_11__hash_nodeIS2_PvEEEE, symObjAddr: 0x349C, symBinAddr: 0x100004F50, symSize: 0xBC }
  - { offsetInCU: 0x1862F, offset: 0x1862F, size: 0x8, addend: 0x0, symName: __ZNSt3__117__compressed_pairINS_16__hash_node_baseIPNS_11__hash_nodeINS_17__hash_value_typeIdiEEPvEEEENS_9allocatorIS6_EEE5firstB7v160006Ev, symObjAddr: 0x3558, symBinAddr: 0x10000500C, symSize: 0x24 }
  - { offsetInCU: 0x18655, offset: 0x18655, size: 0x8, addend: 0x0, symName: __ZNSt3__112__hash_tableINS_17__hash_value_typeIdiEENS_22__unordered_map_hasherIdS2_NS_4hashIdEENS_8equal_toIdEELb1EEENS_21__unordered_map_equalIdS2_S7_S5_Lb1EEENS_9allocatorIS2_EEE12__node_allocB7v160006Ev, symObjAddr: 0x358C, symBinAddr: 0x100005040, symSize: 0x28 }
  - { offsetInCU: 0x1867B, offset: 0x1867B, size: 0x8, addend: 0x0, symName: __ZNSt3__116__hash_node_baseIPNS_11__hash_nodeINS_17__hash_value_typeIdiEEPvEEE8__upcastB7v160006Ev, symObjAddr: 0x35B4, symBinAddr: 0x100005068, symSize: 0x24 }
  - { offsetInCU: 0x186A1, offset: 0x186A1, size: 0x8, addend: 0x0, symName: __ZNSt3__116allocator_traitsINS_9allocatorINS_11__hash_nodeINS_17__hash_value_typeIdiEEPvEEEEE7destroyB7v160006INS_4pairIKdiEEvvEEvRS7_PT_, symObjAddr: 0x35D8, symBinAddr: 0x10000508C, symSize: 0x14 }
  - { offsetInCU: 0x186DB, offset: 0x186DB, size: 0x8, addend: 0x0, symName: __ZNSt3__122__hash_key_value_typesINS_17__hash_value_typeIdiEEE9__get_ptrB7v160006ERS2_, symObjAddr: 0x35EC, symBinAddr: 0x1000050A0, symSize: 0x24 }
  - { offsetInCU: 0x186FE, offset: 0x186FE, size: 0x8, addend: 0x0, symName: __ZNSt3__116allocator_traitsINS_9allocatorINS_11__hash_nodeINS_17__hash_value_typeIdiEEPvEEEEE10deallocateB7v160006ERS7_PS6_m, symObjAddr: 0x3610, symBinAddr: 0x1000050C4, symSize: 0x34 }
  - { offsetInCU: 0x18740, offset: 0x18740, size: 0x8, addend: 0x0, symName: __ZNSt3__117__compressed_pairINS_16__hash_node_baseIPNS_11__hash_nodeINS_17__hash_value_typeIdiEEPvEEEENS_9allocatorIS6_EEE6secondB7v160006Ev, symObjAddr: 0x3644, symBinAddr: 0x1000050F8, symSize: 0x24 }
  - { offsetInCU: 0x18766, offset: 0x18766, size: 0x8, addend: 0x0, symName: __ZNSt3__122__compressed_pair_elemINS_9allocatorINS_11__hash_nodeINS_17__hash_value_typeIdiEEPvEEEELi1ELb1EE5__getB7v160006Ev, symObjAddr: 0x3668, symBinAddr: 0x10000511C, symSize: 0x14 }
  - { offsetInCU: 0x1878C, offset: 0x1878C, size: 0x8, addend: 0x0, symName: __ZNSt3__114pointer_traitsIPNS_16__hash_node_baseIPNS_11__hash_nodeINS_17__hash_value_typeIdiEEPvEEEEE10pointer_toB7v160006ERS8_, symObjAddr: 0x367C, symBinAddr: 0x100005130, symSize: 0x14 }
  - { offsetInCU: 0x187AF, offset: 0x187AF, size: 0x8, addend: 0x0, symName: __ZNSt3__117__hash_value_typeIdiE11__get_valueB7v160006Ev, symObjAddr: 0x3690, symBinAddr: 0x100005144, symSize: 0x14 }
  - { offsetInCU: 0x187D5, offset: 0x187D5, size: 0x8, addend: 0x0, symName: __ZNSt3__19allocatorINS_11__hash_nodeINS_17__hash_value_typeIdiEEPvEEE10deallocateB7v160006EPS5_m, symObjAddr: 0x36A4, symBinAddr: 0x100005158, symSize: 0x70 }
  - { offsetInCU: 0x18817, offset: 0x18817, size: 0x8, addend: 0x0, symName: __ZNSt3__122__compressed_pair_elemINS_16__hash_node_baseIPNS_11__hash_nodeINS_17__hash_value_typeIdiEEPvEEEELi0ELb0EE5__getB7v160006Ev, symObjAddr: 0x3714, symBinAddr: 0x1000051C8, symSize: 0x14 }
  - { offsetInCU: 0x1883D, offset: 0x1883D, size: 0x8, addend: 0x0, symName: __ZNKSt3__16vectorI10PriceLevelNS_9allocatorIS1_EEE8capacityB7v160006Ev, symObjAddr: 0x3728, symBinAddr: 0x1000051DC, symSize: 0x44 }
  - { offsetInCU: 0x18863, offset: 0x18863, size: 0x8, addend: 0x0, symName: __ZNKSt3__16vectorI10PriceLevelNS_9allocatorIS1_EEE8max_sizeEv, symObjAddr: 0x376C, symBinAddr: 0x100005220, symSize: 0x74 }
  - { offsetInCU: 0x1888B, offset: 0x1888B, size: 0x8, addend: 0x0, symName: __ZNKSt3__16vectorI10PriceLevelNS_9allocatorIS1_EEE20__throw_length_errorB7v160006Ev, symObjAddr: 0x37E0, symBinAddr: 0x100005294, symSize: 0x1C }
  - { offsetInCU: 0x188B1, offset: 0x188B1, size: 0x8, addend: 0x0, symName: __ZNSt3__16vectorI10PriceLevelNS_9allocatorIS1_EEE7__allocB7v160006Ev, symObjAddr: 0x37FC, symBinAddr: 0x1000052B0, symSize: 0x28 }
  - { offsetInCU: 0x188D7, offset: 0x188D7, size: 0x8, addend: 0x0, symName: __ZNKSt3__16vectorI10PriceLevelNS_9allocatorIS1_EEE4sizeB7v160006Ev, symObjAddr: 0x3824, symBinAddr: 0x1000052D8, symSize: 0x2C }
  - { offsetInCU: 0x188FD, offset: 0x188FD, size: 0x8, addend: 0x0, symName: __ZNSt3__114__split_bufferI10PriceLevelRNS_9allocatorIS1_EEEC1EmmS4_, symObjAddr: 0x3850, symBinAddr: 0x100005304, symSize: 0x44 }
  - { offsetInCU: 0x18953, offset: 0x18953, size: 0x8, addend: 0x0, symName: __ZNSt3__114__split_bufferI10PriceLevelRNS_9allocatorIS1_EEED1Ev, symObjAddr: 0x39AC, symBinAddr: 0x100005460, symSize: 0x2C }
  - { offsetInCU: 0x1897F, offset: 0x1897F, size: 0x8, addend: 0x0, symName: __ZNKSt3__16vectorI10PriceLevelNS_9allocatorIS1_EEE9__end_capB7v160006Ev, symObjAddr: 0x39D8, symBinAddr: 0x10000548C, symSize: 0x28 }
  - { offsetInCU: 0x189A5, offset: 0x189A5, size: 0x8, addend: 0x0, symName: __ZNKSt3__117__compressed_pairIP10PriceLevelNS_9allocatorIS1_EEE5firstB7v160006Ev, symObjAddr: 0x3A00, symBinAddr: 0x1000054B4, symSize: 0x24 }
  - { offsetInCU: 0x189CB, offset: 0x189CB, size: 0x8, addend: 0x0, symName: __ZNKSt3__122__compressed_pair_elemIP10PriceLevelLi0ELb0EE5__getB7v160006Ev, symObjAddr: 0x3A24, symBinAddr: 0x1000054D8, symSize: 0x14 }
  - { offsetInCU: 0x189FB, offset: 0x189FB, size: 0x8, addend: 0x0, symName: __ZNSt3__116allocator_traitsINS_9allocatorI10PriceLevelEEE8max_sizeB7v160006IS3_vEEmRKS3_, symObjAddr: 0x3A64, symBinAddr: 0x100005518, symSize: 0x24 }
  - { offsetInCU: 0x18A29, offset: 0x18A29, size: 0x8, addend: 0x0, symName: __ZNKSt3__16vectorI10PriceLevelNS_9allocatorIS1_EEE7__allocB7v160006Ev, symObjAddr: 0x3A88, symBinAddr: 0x10000553C, symSize: 0x28 }
  - { offsetInCU: 0x18A4F, offset: 0x18A4F, size: 0x8, addend: 0x0, symName: __ZNSt3__114numeric_limitsIlE3maxB7v160006Ev, symObjAddr: 0x3AB0, symBinAddr: 0x100005564, symSize: 0x14 }
  - { offsetInCU: 0x18A63, offset: 0x18A63, size: 0x8, addend: 0x0, symName: __ZNKSt3__19allocatorI10PriceLevelE8max_sizeB7v160006Ev, symObjAddr: 0x3B18, symBinAddr: 0x1000055CC, symSize: 0x18 }
  - { offsetInCU: 0x18A89, offset: 0x18A89, size: 0x8, addend: 0x0, symName: __ZNKSt3__117__compressed_pairIP10PriceLevelNS_9allocatorIS1_EEE6secondB7v160006Ev, symObjAddr: 0x3B30, symBinAddr: 0x1000055E4, symSize: 0x24 }
  - { offsetInCU: 0x18AAF, offset: 0x18AAF, size: 0x8, addend: 0x0, symName: __ZNKSt3__122__compressed_pair_elemINS_9allocatorI10PriceLevelEELi1ELb1EE5__getB7v160006Ev, symObjAddr: 0x3B54, symBinAddr: 0x100005608, symSize: 0x14 }
  - { offsetInCU: 0x18AD5, offset: 0x18AD5, size: 0x8, addend: 0x0, symName: __ZNSt3__123__libcpp_numeric_limitsIlLb1EE3maxB7v160006Ev, symObjAddr: 0x3B68, symBinAddr: 0x10000561C, symSize: 0x8 }
  - { offsetInCU: 0x18AE9, offset: 0x18AE9, size: 0x8, addend: 0x0, symName: __ZNSt12length_errorC1B7v160006EPKc, symObjAddr: 0x3BD4, symBinAddr: 0x100005688, symSize: 0x34 }
  - { offsetInCU: 0x18B21, offset: 0x18B21, size: 0x8, addend: 0x0, symName: __ZNSt12length_errorC2B7v160006EPKc, symObjAddr: 0x3C08, symBinAddr: 0x1000056BC, symSize: 0x4C }
  - { offsetInCU: 0x18B59, offset: 0x18B59, size: 0x8, addend: 0x0, symName: __ZNSt3__117__compressed_pairIP10PriceLevelNS_9allocatorIS1_EEE6secondB7v160006Ev, symObjAddr: 0x3C54, symBinAddr: 0x100005708, symSize: 0x24 }
  - { offsetInCU: 0x18B7F, offset: 0x18B7F, size: 0x8, addend: 0x0, symName: __ZNSt3__122__compressed_pair_elemINS_9allocatorI10PriceLevelEELi1ELb1EE5__getB7v160006Ev, symObjAddr: 0x3C78, symBinAddr: 0x10000572C, symSize: 0x14 }
  - { offsetInCU: 0x18BA5, offset: 0x18BA5, size: 0x8, addend: 0x0, symName: __ZNSt3__114__split_bufferI10PriceLevelRNS_9allocatorIS1_EEEC2EmmS4_, symObjAddr: 0x3C8C, symBinAddr: 0x100005740, symSize: 0xE4 }
  - { offsetInCU: 0x18C19, offset: 0x18C19, size: 0x8, addend: 0x0, symName: __ZNSt3__117__compressed_pairIP10PriceLevelRNS_9allocatorIS1_EEEC1B7v160006IDnS5_EEOT_OT0_, symObjAddr: 0x3D70, symBinAddr: 0x100005824, symSize: 0x3C }
  - { offsetInCU: 0x18C71, offset: 0x18C71, size: 0x8, addend: 0x0, symName: __ZNSt3__114__split_bufferI10PriceLevelRNS_9allocatorIS1_EEE7__allocB7v160006Ev, symObjAddr: 0x3DEC, symBinAddr: 0x1000058A0, symSize: 0x28 }
  - { offsetInCU: 0x18C97, offset: 0x18C97, size: 0x8, addend: 0x0, symName: __ZNSt3__114__split_bufferI10PriceLevelRNS_9allocatorIS1_EEE9__end_capB7v160006Ev, symObjAddr: 0x3E14, symBinAddr: 0x1000058C8, symSize: 0x28 }
  - { offsetInCU: 0x18CBD, offset: 0x18CBD, size: 0x8, addend: 0x0, symName: __ZNSt3__117__compressed_pairIP10PriceLevelRNS_9allocatorIS1_EEEC2B7v160006IDnS5_EEOT_OT0_, symObjAddr: 0x3E3C, symBinAddr: 0x1000058F0, symSize: 0x48 }
  - { offsetInCU: 0x18D15, offset: 0x18D15, size: 0x8, addend: 0x0, symName: __ZNSt3__122__compressed_pair_elemIRNS_9allocatorI10PriceLevelEELi1ELb0EEC2B7v160006IS4_vEEOT_, symObjAddr: 0x3E84, symBinAddr: 0x100005938, symSize: 0x20 }
  - { offsetInCU: 0x18D57, offset: 0x18D57, size: 0x8, addend: 0x0, symName: __ZNSt3__19allocatorI10PriceLevelE8allocateB7v160006Em, symObjAddr: 0x3EA4, symBinAddr: 0x100005958, symSize: 0x94 }
  - { offsetInCU: 0x18D8B, offset: 0x18D8B, size: 0x8, addend: 0x0, symName: __ZNSt3__117__compressed_pairIP10PriceLevelRNS_9allocatorIS1_EEE6secondB7v160006Ev, symObjAddr: 0x3F38, symBinAddr: 0x1000059EC, symSize: 0x28 }
  - { offsetInCU: 0x18DB1, offset: 0x18DB1, size: 0x8, addend: 0x0, symName: __ZNSt3__122__compressed_pair_elemIRNS_9allocatorI10PriceLevelEELi1ELb0EE5__getB7v160006Ev, symObjAddr: 0x3F60, symBinAddr: 0x100005A14, symSize: 0x18 }
  - { offsetInCU: 0x18DD7, offset: 0x18DD7, size: 0x8, addend: 0x0, symName: __ZNSt3__117__compressed_pairIP10PriceLevelRNS_9allocatorIS1_EEE5firstB7v160006Ev, symObjAddr: 0x3F78, symBinAddr: 0x100005A2C, symSize: 0x24 }
  - { offsetInCU: 0x18DFD, offset: 0x18DFD, size: 0x8, addend: 0x0, symName: __ZNSt3__122__compressed_pair_elemIP10PriceLevelLi0ELb0EE5__getB7v160006Ev, symObjAddr: 0x3F9C, symBinAddr: 0x100005A50, symSize: 0x14 }
  - { offsetInCU: 0x18E23, offset: 0x18E23, size: 0x8, addend: 0x0, symName: __ZNKSt3__16vectorI10PriceLevelNS_9allocatorIS1_EEE17__annotate_deleteB7v160006Ev, symObjAddr: 0x3FB0, symBinAddr: 0x100005A64, symSize: 0xD8 }
  - { offsetInCU: 0x18E49, offset: 0x18E49, size: 0x8, addend: 0x0, symName: __ZNSt3__116reverse_iteratorIP10PriceLevelEC1B7v160006ES2_, symObjAddr: 0x41BC, symBinAddr: 0x100005C70, symSize: 0x34 }
  - { offsetInCU: 0x18E81, offset: 0x18E81, size: 0x8, addend: 0x0, symName: __ZNKSt3__116reverse_iteratorIP10PriceLevelE4baseB7v160006Ev, symObjAddr: 0x41F0, symBinAddr: 0x100005CA4, symSize: 0x18 }
  - { offsetInCU: 0x18EA7, offset: 0x18EA7, size: 0x8, addend: 0x0, symName: __ZNSt3__16vectorI10PriceLevelNS_9allocatorIS1_EEE9__end_capB7v160006Ev, symObjAddr: 0x4244, symBinAddr: 0x100005CF8, symSize: 0x28 }
  - { offsetInCU: 0x18ECD, offset: 0x18ECD, size: 0x8, addend: 0x0, symName: __ZNKSt3__16vectorI10PriceLevelNS_9allocatorIS1_EEE14__annotate_newB7v160006Em, symObjAddr: 0x426C, symBinAddr: 0x100005D20, symSize: 0xCC }
  - { offsetInCU: 0x18F02, offset: 0x18F02, size: 0x8, addend: 0x0, symName: __ZNKSt3__16vectorI10PriceLevelNS_9allocatorIS1_EEE31__annotate_contiguous_containerB7v160006EPKvS6_S6_S6_, symObjAddr: 0x4348, symBinAddr: 0x100005DFC, symSize: 0x20 }
  - { offsetInCU: 0x18F54, offset: 0x18F54, size: 0x8, addend: 0x0, symName: __ZNKSt3__16vectorI10PriceLevelNS_9allocatorIS1_EEE4dataB7v160006Ev, symObjAddr: 0x4368, symBinAddr: 0x100005E1C, symSize: 0x28 }
  - { offsetInCU: 0x18F7A, offset: 0x18F7A, size: 0x8, addend: 0x0, symName: __ZNSt3__129_AllocatorDestroyRangeReverseINS_9allocatorI10PriceLevelEENS_16reverse_iteratorIPS2_EEEC1B7v160006ERS3_RS6_S9_, symObjAddr: 0x43F0, symBinAddr: 0x100005EA4, symSize: 0x44 }
  - { offsetInCU: 0x18FD1, offset: 0x18FD1, size: 0x8, addend: 0x0, symName: __ZNSt3__116allocator_traitsINS_9allocatorI10PriceLevelEEE9constructB7v160006IS2_JRKS2_EvEEvRS3_PT_DpOT0_, symObjAddr: 0x447C, symBinAddr: 0x100005F30, symSize: 0x34 }
  - { offsetInCU: 0x19028, offset: 0x19028, size: 0x8, addend: 0x0, symName: __ZNKSt3__116reverse_iteratorIP10PriceLevelEdeB7v160006Ev, symObjAddr: 0x44D4, symBinAddr: 0x100005F88, symSize: 0x30 }
  - { offsetInCU: 0x1905C, offset: 0x1905C, size: 0x8, addend: 0x0, symName: __ZNSt3__116reverse_iteratorIP10PriceLevelEppB7v160006Ev, symObjAddr: 0x4504, symBinAddr: 0x100005FB8, symSize: 0x28 }
  - { offsetInCU: 0x19082, offset: 0x19082, size: 0x8, addend: 0x0, symName: __ZNSt3__128__exception_guard_exceptionsINS_29_AllocatorDestroyRangeReverseINS_9allocatorI10PriceLevelEENS_16reverse_iteratorIPS3_EEEEE10__completeB7v160006Ev, symObjAddr: 0x452C, symBinAddr: 0x100005FE0, symSize: 0x1C }
  - { offsetInCU: 0x190A8, offset: 0x190A8, size: 0x8, addend: 0x0, symName: __ZNSt3__128__exception_guard_exceptionsINS_29_AllocatorDestroyRangeReverseINS_9allocatorI10PriceLevelEENS_16reverse_iteratorIPS3_EEEEED1B7v160006Ev, symObjAddr: 0x4548, symBinAddr: 0x100005FFC, symSize: 0x2C }
  - { offsetInCU: 0x190D2, offset: 0x190D2, size: 0x8, addend: 0x0, symName: __ZNSt3__128__exception_guard_exceptionsINS_29_AllocatorDestroyRangeReverseINS_9allocatorI10PriceLevelEENS_16reverse_iteratorIPS3_EEEEEC1B7v160006ES8_, symObjAddr: 0x4574, symBinAddr: 0x100006028, symSize: 0x34 }
  - { offsetInCU: 0x1910B, offset: 0x1910B, size: 0x8, addend: 0x0, symName: __ZNSt3__128__exception_guard_exceptionsINS_29_AllocatorDestroyRangeReverseINS_9allocatorI10PriceLevelEENS_16reverse_iteratorIPS3_EEEEEC2B7v160006ES8_, symObjAddr: 0x45A8, symBinAddr: 0x10000605C, symSize: 0x30 }
  - { offsetInCU: 0x19144, offset: 0x19144, size: 0x8, addend: 0x0, symName: __ZNSt3__129_AllocatorDestroyRangeReverseINS_9allocatorI10PriceLevelEENS_16reverse_iteratorIPS2_EEEC2B7v160006ERS3_RS6_S9_, symObjAddr: 0x45D8, symBinAddr: 0x10000608C, symSize: 0x38 }
  - { offsetInCU: 0x1919B, offset: 0x1919B, size: 0x8, addend: 0x0, symName: __ZNSt3__19allocatorI10PriceLevelE9constructB7v160006IS1_JRKS1_EEEvPT_DpOT0_, symObjAddr: 0x4610, symBinAddr: 0x1000060C4, symSize: 0x30 }
  - { offsetInCU: 0x191F1, offset: 0x191F1, size: 0x8, addend: 0x0, symName: __ZN10PriceLevelC1ERKS_, symObjAddr: 0x4640, symBinAddr: 0x1000060F4, symSize: 0x34 }
  - { offsetInCU: 0x19229, offset: 0x19229, size: 0x8, addend: 0x0, symName: __ZN10PriceLevelC2ERKS_, symObjAddr: 0x4674, symBinAddr: 0x100006128, symSize: 0xF8 }
  - { offsetInCU: 0x19283, offset: 0x19283, size: 0x8, addend: 0x0, symName: __ZNSt3__119__to_address_helperINS_16reverse_iteratorIP10PriceLevelEEvE6__callB7v160006ERKS4_, symObjAddr: 0x476C, symBinAddr: 0x100006220, symSize: 0x4C }
  - { offsetInCU: 0x192A6, offset: 0x192A6, size: 0x8, addend: 0x0, symName: __ZNKSt3__116reverse_iteratorIP10PriceLevelEptB7v160006Ev, symObjAddr: 0x47B8, symBinAddr: 0x10000626C, symSize: 0x24 }
  - { offsetInCU: 0x192CC, offset: 0x192CC, size: 0x8, addend: 0x0, symName: __ZNSt3__128__exception_guard_exceptionsINS_29_AllocatorDestroyRangeReverseINS_9allocatorI10PriceLevelEENS_16reverse_iteratorIPS3_EEEEED2B7v160006Ev, symObjAddr: 0x47DC, symBinAddr: 0x100006290, symSize: 0x48 }
  - { offsetInCU: 0x192F6, offset: 0x192F6, size: 0x8, addend: 0x0, symName: __ZNKSt3__129_AllocatorDestroyRangeReverseINS_9allocatorI10PriceLevelEENS_16reverse_iteratorIPS2_EEEclB7v160006Ev, symObjAddr: 0x4824, symBinAddr: 0x1000062D8, symSize: 0xB4 }
  - { offsetInCU: 0x1931D, offset: 0x1931D, size: 0x8, addend: 0x0, symName: __ZNSt3__116reverse_iteratorINS0_IP10PriceLevelEEEC1B7v160006ES3_, symObjAddr: 0x4948, symBinAddr: 0x1000063FC, symSize: 0x3C }
  - { offsetInCU: 0x19355, offset: 0x19355, size: 0x8, addend: 0x0, symName: __ZNSt3__116allocator_traitsINS_9allocatorI10PriceLevelEEE7destroyB7v160006IS2_vEEvRS3_PT_, symObjAddr: 0x49E4, symBinAddr: 0x100006498, symSize: 0x2C }
  - { offsetInCU: 0x19392, offset: 0x19392, size: 0x8, addend: 0x0, symName: __ZNSt3__116reverse_iteratorINS0_IP10PriceLevelEEEppB7v160006Ev, symObjAddr: 0x4A34, symBinAddr: 0x1000064E8, symSize: 0x30 }
  - { offsetInCU: 0x193B8, offset: 0x193B8, size: 0x8, addend: 0x0, symName: __ZNKSt3__116reverse_iteratorINS0_IP10PriceLevelEEE4baseB7v160006Ev, symObjAddr: 0x4A64, symBinAddr: 0x100006518, symSize: 0x24 }
  - { offsetInCU: 0x193DE, offset: 0x193DE, size: 0x8, addend: 0x0, symName: __ZNSt3__19allocatorI10PriceLevelE7destroyB7v160006EPS1_, symObjAddr: 0x4A88, symBinAddr: 0x10000653C, symSize: 0x14 }
  - { offsetInCU: 0x19417, offset: 0x19417, size: 0x8, addend: 0x0, symName: __ZNSt3__119__to_address_helperINS_16reverse_iteratorINS1_IP10PriceLevelEEEEvE6__callB7v160006ERKS5_, symObjAddr: 0x4A9C, symBinAddr: 0x100006550, symSize: 0x4C }
  - { offsetInCU: 0x1943A, offset: 0x1943A, size: 0x8, addend: 0x0, symName: __ZNKSt3__116reverse_iteratorINS0_IP10PriceLevelEEEptB7v160006Ev, symObjAddr: 0x4AE8, symBinAddr: 0x10000659C, symSize: 0x24 }
  - { offsetInCU: 0x19460, offset: 0x19460, size: 0x8, addend: 0x0, symName: __ZNKSt3__116reverse_iteratorINS0_IP10PriceLevelEEEdeB7v160006Ev, symObjAddr: 0x4B0C, symBinAddr: 0x1000065C0, symSize: 0x34 }
  - { offsetInCU: 0x19494, offset: 0x19494, size: 0x8, addend: 0x0, symName: __ZNSt3__116reverse_iteratorIP10PriceLevelEmmB7v160006Ev, symObjAddr: 0x4B40, symBinAddr: 0x1000065F4, symSize: 0x28 }
  - { offsetInCU: 0x194BA, offset: 0x194BA, size: 0x8, addend: 0x0, symName: __ZNSt3__116reverse_iteratorINS0_IP10PriceLevelEEEC2B7v160006ES3_, symObjAddr: 0x4B68, symBinAddr: 0x10000661C, symSize: 0x2C }
  - { offsetInCU: 0x194F2, offset: 0x194F2, size: 0x8, addend: 0x0, symName: __ZNSt3__116reverse_iteratorIP10PriceLevelEC2B7v160006ES2_, symObjAddr: 0x4B94, symBinAddr: 0x100006648, symSize: 0x28 }
  - { offsetInCU: 0x1952A, offset: 0x1952A, size: 0x8, addend: 0x0, symName: __ZNSt3__117__compressed_pairIP10PriceLevelNS_9allocatorIS1_EEE5firstB7v160006Ev, symObjAddr: 0x4BBC, symBinAddr: 0x100006670, symSize: 0x24 }
  - { offsetInCU: 0x19550, offset: 0x19550, size: 0x8, addend: 0x0, symName: __ZNSt3__114__split_bufferI10PriceLevelRNS_9allocatorIS1_EEED2Ev, symObjAddr: 0x4BE0, symBinAddr: 0x100006694, symSize: 0x80 }
  - { offsetInCU: 0x1957C, offset: 0x1957C, size: 0x8, addend: 0x0, symName: __ZNSt3__114__split_bufferI10PriceLevelRNS_9allocatorIS1_EEE5clearB7v160006Ev, symObjAddr: 0x4C60, symBinAddr: 0x100006714, symSize: 0x28 }
  - { offsetInCU: 0x195A2, offset: 0x195A2, size: 0x8, addend: 0x0, symName: __ZNSt3__116allocator_traitsINS_9allocatorI10PriceLevelEEE10deallocateB7v160006ERS3_PS2_m, symObjAddr: 0x4C88, symBinAddr: 0x10000673C, symSize: 0x34 }
  - { offsetInCU: 0x195E4, offset: 0x195E4, size: 0x8, addend: 0x0, symName: __ZNKSt3__114__split_bufferI10PriceLevelRNS_9allocatorIS1_EEE8capacityB7v160006Ev, symObjAddr: 0x4CBC, symBinAddr: 0x100006770, symSize: 0x44 }
  - { offsetInCU: 0x1960A, offset: 0x1960A, size: 0x8, addend: 0x0, symName: __ZNSt3__114__split_bufferI10PriceLevelRNS_9allocatorIS1_EEE17__destruct_at_endB7v160006EPS1_, symObjAddr: 0x4D00, symBinAddr: 0x1000067B4, symSize: 0x2C }
  - { offsetInCU: 0x1963E, offset: 0x1963E, size: 0x8, addend: 0x0, symName: __ZNSt3__114__split_bufferI10PriceLevelRNS_9allocatorIS1_EEE17__destruct_at_endB7v160006EPS1_NS_17integral_constantIbLb0EEE, symObjAddr: 0x4D2C, symBinAddr: 0x1000067E0, symSize: 0x9C }
  - { offsetInCU: 0x1967F, offset: 0x1967F, size: 0x8, addend: 0x0, symName: __ZNSt3__19allocatorI10PriceLevelE10deallocateB7v160006EPS1_m, symObjAddr: 0x4DC8, symBinAddr: 0x10000687C, symSize: 0x78 }
  - { offsetInCU: 0x196C1, offset: 0x196C1, size: 0x8, addend: 0x0, symName: __ZNKSt3__114__split_bufferI10PriceLevelRNS_9allocatorIS1_EEE9__end_capB7v160006Ev, symObjAddr: 0x4E40, symBinAddr: 0x1000068F4, symSize: 0x28 }
  - { offsetInCU: 0x196E7, offset: 0x196E7, size: 0x8, addend: 0x0, symName: __ZNKSt3__117__compressed_pairIP10PriceLevelRNS_9allocatorIS1_EEE5firstB7v160006Ev, symObjAddr: 0x4E68, symBinAddr: 0x10000691C, symSize: 0x24 }
  - { offsetInCU: 0x1970D, offset: 0x1970D, size: 0x8, addend: 0x0, symName: __ZNSt3__16vectorI10PriceLevelNS_9allocatorIS1_EEE22__construct_one_at_endB7v160006IJR4SideEEEvDpOT_, symObjAddr: 0x4E8C, symBinAddr: 0x100006940, symSize: 0xA0 }
  - { offsetInCU: 0x1975C, offset: 0x1975C, size: 0x8, addend: 0x0, symName: __ZNSt3__16vectorI10PriceLevelNS_9allocatorIS1_EEE24__emplace_back_slow_pathIJR4SideEEEvDpOT_, symObjAddr: 0x4F2C, symBinAddr: 0x1000069E0, symSize: 0xE8 }
  - { offsetInCU: 0x197D5, offset: 0x197D5, size: 0x8, addend: 0x0, symName: __ZNSt3__16vectorI10PriceLevelNS_9allocatorIS1_EEE21_ConstructTransactionC1B7v160006ERS4_m, symObjAddr: 0x5014, symBinAddr: 0x100006AC8, symSize: 0x3C }
  - { offsetInCU: 0x1981D, offset: 0x1981D, size: 0x8, addend: 0x0, symName: __ZNSt3__116allocator_traitsINS_9allocatorI10PriceLevelEEE9constructB7v160006IS2_JR4SideEvEEvRS3_PT_DpOT0_, symObjAddr: 0x5050, symBinAddr: 0x100006B04, symSize: 0x34 }
  - { offsetInCU: 0x19874, offset: 0x19874, size: 0x8, addend: 0x0, symName: __ZNSt3__16vectorI10PriceLevelNS_9allocatorIS1_EEE21_ConstructTransactionD1B7v160006Ev, symObjAddr: 0x5084, symBinAddr: 0x100006B38, symSize: 0x2C }
  - { offsetInCU: 0x1989E, offset: 0x1989E, size: 0x8, addend: 0x0, symName: __ZNSt3__16vectorI10PriceLevelNS_9allocatorIS1_EEE21_ConstructTransactionC2B7v160006ERS4_m, symObjAddr: 0x50B0, symBinAddr: 0x100006B64, symSize: 0x50 }
  - { offsetInCU: 0x198E6, offset: 0x198E6, size: 0x8, addend: 0x0, symName: __ZNSt3__19allocatorI10PriceLevelE9constructB7v160006IS1_JR4SideEEEvPT_DpOT0_, symObjAddr: 0x5100, symBinAddr: 0x100006BB4, symSize: 0x34 }
  - { offsetInCU: 0x1993C, offset: 0x1993C, size: 0x8, addend: 0x0, symName: __ZN10PriceLevelC1E4Side, symObjAddr: 0x5134, symBinAddr: 0x100006BE8, symSize: 0x34 }
  - { offsetInCU: 0x19974, offset: 0x19974, size: 0x8, addend: 0x0, symName: __ZN10PriceLevelC2E4Side, symObjAddr: 0x5168, symBinAddr: 0x100006C1C, symSize: 0x38 }
  - { offsetInCU: 0x199AC, offset: 0x199AC, size: 0x8, addend: 0x0, symName: __ZNSt3__16vectorI10PriceLevelNS_9allocatorIS1_EEE21_ConstructTransactionD2B7v160006Ev, symObjAddr: 0x51A0, symBinAddr: 0x100006C54, symSize: 0x20 }
  - { offsetInCU: 0x199D6, offset: 0x199D6, size: 0x8, addend: 0x0, symName: __ZNKSt3__16vectorI10PriceLevelNS_9allocatorIS1_EEE11__recommendB7v160006Em, symObjAddr: 0x51C0, symBinAddr: 0x100006C74, symSize: 0xB4 }
  - { offsetInCU: 0x19A2B, offset: 0x19A2B, size: 0x8, addend: 0x0, symName: __ZNSt3__113unordered_mapIdiNS_4hashIdEENS_8equal_toIdEENS_9allocatorINS_4pairIKdiEEEEED2B7v160006Ev, symObjAddr: 0x5274, symBinAddr: 0x100006D28, symSize: 0x2C }
  - { offsetInCU: 0x19A55, offset: 0x19A55, size: 0x8, addend: 0x0, symName: __ZNSt3__16vectorI10PriceLevelNS_9allocatorIS1_EEED2B7v160006Ev, symObjAddr: 0x52A0, symBinAddr: 0x100006D54, symSize: 0x3C }
  - { offsetInCU: 0x19A7F, offset: 0x19A7F, size: 0x8, addend: 0x0, symName: __ZNSt3__16vectorI10PriceLevelNS_9allocatorIS1_EEE16__destroy_vectorC1ERS4_, symObjAddr: 0x52DC, symBinAddr: 0x100006D90, symSize: 0x34 }
  - { offsetInCU: 0x19AB8, offset: 0x19AB8, size: 0x8, addend: 0x0, symName: __ZNSt3__16vectorI10PriceLevelNS_9allocatorIS1_EEE16__destroy_vectorclB7v160006Ev, symObjAddr: 0x5310, symBinAddr: 0x100006DC4, symSize: 0x9C }
  - { offsetInCU: 0x19ADE, offset: 0x19ADE, size: 0x8, addend: 0x0, symName: __ZNSt3__16vectorI10PriceLevelNS_9allocatorIS1_EEE16__destroy_vectorC2ERS4_, symObjAddr: 0x53AC, symBinAddr: 0x100006E60, symSize: 0x20 }
  - { offsetInCU: 0x19B17, offset: 0x19B17, size: 0x8, addend: 0x0, symName: __ZNSt3__16vectorI10PriceLevelNS_9allocatorIS1_EEE7__clearB7v160006Ev, symObjAddr: 0x53DC, symBinAddr: 0x100006E90, symSize: 0x28 }
  - { offsetInCU: 0x19B3D, offset: 0x19B3D, size: 0x8, addend: 0x0, symName: __ZNSt3__16vectorI10PriceLevelNS_9allocatorIS1_EEE22__base_destruct_at_endB7v160006EPS1_, symObjAddr: 0x5404, symBinAddr: 0x100006EB8, symSize: 0xA8 }
  - { offsetInCU: 0x19B81, offset: 0x19B81, size: 0x8, addend: 0x0, symName: __ZN9OrderBookD2Ev, symObjAddr: 0x54AC, symBinAddr: 0x100006F60, symSize: 0x6C }
  - { offsetInCU: 0x19BAD, offset: 0x19BAD, size: 0x8, addend: 0x0, symName: __ZN10OrderIndexD2Ev, symObjAddr: 0x5518, symBinAddr: 0x100006FCC, symSize: 0x2C }
  - { offsetInCU: 0x19BD9, offset: 0x19BD9, size: 0x8, addend: 0x0, symName: __ZNK5Order5isBuyEv, symObjAddr: 0x5544, symBinAddr: 0x100006FF8, symSize: 0x24 }
  - { offsetInCU: 0x19BFF, offset: 0x19BFF, size: 0x8, addend: 0x0, symName: __ZN6Engine14matchAndInsertER9OrderBookiRK5OrderS1_R10OrderIndex, symObjAddr: 0x5568, symBinAddr: 0x10000701C, symSize: 0x118 }
  - { offsetInCU: 0x19C97, offset: 0x19C97, size: 0x8, addend: 0x0, symName: __ZN9OrderBook10matchOrderEiRK5Order, symObjAddr: 0x5680, symBinAddr: 0x100007134, symSize: 0x278 }
  - { offsetInCU: 0x19D28, offset: 0x19D28, size: 0x8, addend: 0x0, symName: __ZNKSt3__16vectorI5TradeNS_9allocatorIS1_EEE5emptyB7v160006Ev, symObjAddr: 0x58F8, symBinAddr: 0x1000073AC, symSize: 0x28 }
  - { offsetInCU: 0x19D4E, offset: 0x19D4E, size: 0x8, addend: 0x0, symName: __ZN6Engine7executeEi4SideRKNSt3__16vectorI5TradeNS1_9allocatorIS3_EEEE, symObjAddr: 0x5920, symBinAddr: 0x1000073D4, symSize: 0x168 }
  - { offsetInCU: 0x19DF1, offset: 0x19DF1, size: 0x8, addend: 0x0, symName: __ZNK5Order7getSideEv, symObjAddr: 0x5A88, symBinAddr: 0x10000753C, symSize: 0x18 }
  - { offsetInCU: 0x19E17, offset: 0x19E17, size: 0x8, addend: 0x0, symName: __ZNK5Order10isCompleteEv, symObjAddr: 0x5AA0, symBinAddr: 0x100007554, symSize: 0x24 }
  - { offsetInCU: 0x19E3D, offset: 0x19E3D, size: 0x8, addend: 0x0, symName: __ZN9OrderBook10onNewOrderEiRK5Order, symObjAddr: 0x5AC4, symBinAddr: 0x100007578, symSize: 0x220 }
  - { offsetInCU: 0x19ECC, offset: 0x19ECC, size: 0x8, addend: 0x0, symName: __ZN10OrderIndex8addIndexEiRKNS_5IndexE, symObjAddr: 0x5CE4, symBinAddr: 0x100007798, symSize: 0x5C }
  - { offsetInCU: 0x19F0E, offset: 0x19F0E, size: 0x8, addend: 0x0, symName: __ZNSt3__16vectorI5TradeNS_9allocatorIS1_EEED1B7v160006Ev, symObjAddr: 0x5D40, symBinAddr: 0x1000077F4, symSize: 0x2C }
  - { offsetInCU: 0x19F38, offset: 0x19F38, size: 0x8, addend: 0x0, symName: __ZNSt3__16vectorI5TradeNS_9allocatorIS1_EEEC1B7v160006Ev, symObjAddr: 0x5D6C, symBinAddr: 0x100007820, symSize: 0x2C }
  - { offsetInCU: 0x19F62, offset: 0x19F62, size: 0x8, addend: 0x0, symName: __ZNKSt3__113unordered_mapIdiNS_4hashIdEENS_8equal_toIdEENS_9allocatorINS_4pairIKdiEEEEE5emptyB7v160006Ev, symObjAddr: 0x5D98, symBinAddr: 0x10000784C, symSize: 0x30 }
  - { offsetInCU: 0x19F88, offset: 0x19F88, size: 0x8, addend: 0x0, symName: __ZNSt3__113unordered_mapIdiNS_4hashIdEENS_8equal_toIdEENS_9allocatorINS_4pairIKdiEEEEE5beginB7v160006Ev, symObjAddr: 0x5DC8, symBinAddr: 0x10000787C, symSize: 0x38 }
  - { offsetInCU: 0x19FAE, offset: 0x19FAE, size: 0x8, addend: 0x0, symName: __ZNKSt3__119__hash_map_iteratorINS_15__hash_iteratorIPNS_11__hash_nodeINS_17__hash_value_typeIdiEEPvEEEEEptB7v160006Ev, symObjAddr: 0x5E00, symBinAddr: 0x1000078B4, symSize: 0x2C }
  - { offsetInCU: 0x19FD4, offset: 0x19FD4, size: 0x8, addend: 0x0, symName: __ZNK5Order10canExecuteEd, symObjAddr: 0x5E2C, symBinAddr: 0x1000078E0, symSize: 0xA0 }
  - { offsetInCU: 0x1A008, offset: 0x1A008, size: 0x8, addend: 0x0, symName: __ZNSt3__16vectorI10PriceLevelNS_9allocatorIS1_EEEixB7v160006Em, symObjAddr: 0x5ECC, symBinAddr: 0x100007980, symSize: 0x30 }
  - { offsetInCU: 0x1A03F, offset: 0x1A03F, size: 0x8, addend: 0x0, symName: __ZN10PriceLevel10matchOrderEi5OrderRNSt3__16vectorI5TradeNS1_9allocatorIS3_EEEE, symObjAddr: 0x5EFC, symBinAddr: 0x1000079B0, symSize: 0x24C }
  - { offsetInCU: 0x1A0D7, offset: 0x1A0D7, size: 0x8, addend: 0x0, symName: __ZNK10PriceLevel7isEmptyEv, symObjAddr: 0x6148, symBinAddr: 0x100007BFC, symSize: 0x24 }
  - { offsetInCU: 0x1A0FD, offset: 0x1A0FD, size: 0x8, addend: 0x0, symName: __ZNSt3__113unordered_mapIdiNS_4hashIdEENS_8equal_toIdEENS_9allocatorINS_4pairIKdiEEEEE5eraseB7v160006ERS7_, symObjAddr: 0x616C, symBinAddr: 0x100007C20, symSize: 0x2C }
  - { offsetInCU: 0x1A132, offset: 0x1A132, size: 0x8, addend: 0x0, symName: __ZNSt3__16vectorI5TradeNS_9allocatorIS1_EEEC2B7v160006Ev, symObjAddr: 0x6198, symBinAddr: 0x100007C4C, symSize: 0x4C }
  - { offsetInCU: 0x1A15C, offset: 0x1A15C, size: 0x8, addend: 0x0, symName: __ZNSt3__117__compressed_pairIP5TradeNS_9allocatorIS1_EEEC1B7v160006IDnNS_18__default_init_tagEEEOT_OT0_, symObjAddr: 0x61E4, symBinAddr: 0x100007C98, symSize: 0x3C }
  - { offsetInCU: 0x1A1B4, offset: 0x1A1B4, size: 0x8, addend: 0x0, symName: __ZNSt3__117__compressed_pairIP5TradeNS_9allocatorIS1_EEEC2B7v160006IDnNS_18__default_init_tagEEEOT_OT0_, symObjAddr: 0x6230, symBinAddr: 0x100007CE4, symSize: 0x40 }
  - { offsetInCU: 0x1A20C, offset: 0x1A20C, size: 0x8, addend: 0x0, symName: __ZNSt3__122__compressed_pair_elemIP5TradeLi0ELb0EEC2B7v160006IDnvEEOT_, symObjAddr: 0x6270, symBinAddr: 0x100007D24, symSize: 0x1C }
  - { offsetInCU: 0x1A24E, offset: 0x1A24E, size: 0x8, addend: 0x0, symName: __ZNSt3__122__compressed_pair_elemINS_9allocatorI5TradeEELi1ELb1EEC2B7v160006ENS_18__default_init_tagE, symObjAddr: 0x628C, symBinAddr: 0x100007D40, symSize: 0x2C }
  - { offsetInCU: 0x1A283, offset: 0x1A283, size: 0x8, addend: 0x0, symName: __ZNSt3__19allocatorI5TradeEC2B7v160006Ev, symObjAddr: 0x62B8, symBinAddr: 0x100007D6C, symSize: 0x2C }
  - { offsetInCU: 0x1A2AD, offset: 0x1A2AD, size: 0x8, addend: 0x0, symName: __ZNSt3__116__non_trivial_ifILb1ENS_9allocatorI5TradeEEEC2B7v160006Ev, symObjAddr: 0x62E4, symBinAddr: 0x100007D98, symSize: 0x14 }
  - { offsetInCU: 0x1A2D7, offset: 0x1A2D7, size: 0x8, addend: 0x0, symName: __ZNKSt3__112__hash_tableINS_17__hash_value_typeIdiEENS_22__unordered_map_hasherIdS2_NS_4hashIdEENS_8equal_toIdEELb1EEENS_21__unordered_map_equalIdS2_S7_S5_Lb1EEENS_9allocatorIS2_EEE4sizeB7v160006Ev, symObjAddr: 0x62F8, symBinAddr: 0x100007DAC, symSize: 0x2C }
  - { offsetInCU: 0x1A2FD, offset: 0x1A2FD, size: 0x8, addend: 0x0, symName: __ZNKSt3__117__compressed_pairImNS_22__unordered_map_hasherIdNS_17__hash_value_typeIdiEENS_4hashIdEENS_8equal_toIdEELb1EEEE5firstB7v160006Ev, symObjAddr: 0x6324, symBinAddr: 0x100007DD8, symSize: 0x24 }
  - { offsetInCU: 0x1A323, offset: 0x1A323, size: 0x8, addend: 0x0, symName: __ZNSt3__112__hash_tableINS_17__hash_value_typeIdiEENS_22__unordered_map_hasherIdS2_NS_4hashIdEENS_8equal_toIdEELb1EEENS_21__unordered_map_equalIdS2_S7_S5_Lb1EEENS_9allocatorIS2_EEE5beginEv, symObjAddr: 0x6348, symBinAddr: 0x100007DFC, symSize: 0x40 }
  - { offsetInCU: 0x1A34B, offset: 0x1A34B, size: 0x8, addend: 0x0, symName: __ZNSt3__119__hash_map_iteratorINS_15__hash_iteratorIPNS_11__hash_nodeINS_17__hash_value_typeIdiEEPvEEEEEC1B7v160006ES8_, symObjAddr: 0x6388, symBinAddr: 0x100007E3C, symSize: 0x34 }
  - { offsetInCU: 0x1A384, offset: 0x1A384, size: 0x8, addend: 0x0, symName: __ZNSt3__115__hash_iteratorIPNS_11__hash_nodeINS_17__hash_value_typeIdiEEPvEEEC1B7v160006EPNS_16__hash_node_baseIS6_EEPKv, symObjAddr: 0x63BC, symBinAddr: 0x100007E70, symSize: 0x3C }
  - { offsetInCU: 0x1A3CC, offset: 0x1A3CC, size: 0x8, addend: 0x0, symName: __ZNSt3__115__hash_iteratorIPNS_11__hash_nodeINS_17__hash_value_typeIdiEEPvEEEC2B7v160006EPNS_16__hash_node_baseIS6_EEPKv, symObjAddr: 0x63F8, symBinAddr: 0x100007EAC, symSize: 0x24 }
  - { offsetInCU: 0x1A414, offset: 0x1A414, size: 0x8, addend: 0x0, symName: __ZNSt3__119__hash_map_iteratorINS_15__hash_iteratorIPNS_11__hash_nodeINS_17__hash_value_typeIdiEEPvEEEEEC2B7v160006ES8_, symObjAddr: 0x641C, symBinAddr: 0x100007ED0, symSize: 0x20 }
  - { offsetInCU: 0x1A44D, offset: 0x1A44D, size: 0x8, addend: 0x0, symName: __ZNSt3__114pointer_traitsIPNS_4pairIKdiEEE10pointer_toB7v160006ERS3_, symObjAddr: 0x643C, symBinAddr: 0x100007EF0, symSize: 0x14 }
  - { offsetInCU: 0x1A470, offset: 0x1A470, size: 0x8, addend: 0x0, symName: __ZNKSt3__115__hash_iteratorIPNS_11__hash_nodeINS_17__hash_value_typeIdiEEPvEEEptB7v160006Ev, symObjAddr: 0x6450, symBinAddr: 0x100007F04, symSize: 0x30 }
  - { offsetInCU: 0x1A496, offset: 0x1A496, size: 0x8, addend: 0x0, symName: __ZNSt3__114pointer_traitsIPNS_17__hash_value_typeIdiEEE10pointer_toB7v160006ERS2_, symObjAddr: 0x6480, symBinAddr: 0x100007F34, symSize: 0x14 }
  - { offsetInCU: 0x1A4B9, offset: 0x1A4B9, size: 0x8, addend: 0x0, symName: __ZNK10PriceLevel9isInvalidEi, symObjAddr: 0x6494, symBinAddr: 0x100007F48, symSize: 0x70 }
  - { offsetInCU: 0x1A4ED, offset: 0x1A4ED, size: 0x8, addend: 0x0, symName: __ZNK5Order11getQuantityEv, symObjAddr: 0x6504, symBinAddr: 0x100007FB8, symSize: 0x18 }
  - { offsetInCU: 0x1A513, offset: 0x1A513, size: 0x8, addend: 0x0, symName: __ZNSt3__16vectorI5TradeNS_9allocatorIS1_EEE9push_backB7v160006EOS1_, symObjAddr: 0x651C, symBinAddr: 0x100007FD0, symSize: 0x6C }
  - { offsetInCU: 0x1A54A, offset: 0x1A54A, size: 0x8, addend: 0x0, symName: __ZN5TradeC1Eiiid, symObjAddr: 0x6588, symBinAddr: 0x10000803C, symSize: 0x4C }
  - { offsetInCU: 0x1A5AC, offset: 0x1A5AC, size: 0x8, addend: 0x0, symName: __ZN5Order11decreaseQtyEi, symObjAddr: 0x65D4, symBinAddr: 0x100008088, symSize: 0x28 }
  - { offsetInCU: 0x1A5E0, offset: 0x1A5E0, size: 0x8, addend: 0x0, symName: __ZN10PriceLevel11makeInvalidEi, symObjAddr: 0x65FC, symBinAddr: 0x1000080B0, symSize: 0x48 }
  - { offsetInCU: 0x1A614, offset: 0x1A614, size: 0x8, addend: 0x0, symName: __ZNK10PriceLevel16moduloPowerOfTwoEii, symObjAddr: 0x6644, symBinAddr: 0x1000080F8, symSize: 0x28 }
  - { offsetInCU: 0x1A656, offset: 0x1A656, size: 0x8, addend: 0x0, symName: __ZN10PriceLevel13resetStartEndEv, symObjAddr: 0x666C, symBinAddr: 0x100008120, symSize: 0x188 }
  - { offsetInCU: 0x1A67C, offset: 0x1A67C, size: 0x8, addend: 0x0, symName: __ZNSt3__16vectorI5TradeNS_9allocatorIS1_EEE9__end_capB7v160006Ev, symObjAddr: 0x67F4, symBinAddr: 0x1000082A8, symSize: 0x28 }
  - { offsetInCU: 0x1A6A8, offset: 0x1A6A8, size: 0x8, addend: 0x0, symName: __ZNSt3__16vectorI5TradeNS_9allocatorIS1_EEE22__construct_one_at_endB7v160006IJS1_EEEvDpOT_, symObjAddr: 0x681C, symBinAddr: 0x1000082D0, symSize: 0x98 }
  - { offsetInCU: 0x1A6F7, offset: 0x1A6F7, size: 0x8, addend: 0x0, symName: __ZNSt3__16vectorI5TradeNS_9allocatorIS1_EEE21__push_back_slow_pathIS1_EEvOT_, symObjAddr: 0x68B4, symBinAddr: 0x100008368, symSize: 0xE0 }
  - { offsetInCU: 0x1A755, offset: 0x1A755, size: 0x8, addend: 0x0, symName: __ZNSt3__117__compressed_pairIP5TradeNS_9allocatorIS1_EEE5firstB7v160006Ev, symObjAddr: 0x6994, symBinAddr: 0x100008448, symSize: 0x24 }
  - { offsetInCU: 0x1A77B, offset: 0x1A77B, size: 0x8, addend: 0x0, symName: __ZNSt3__122__compressed_pair_elemIP5TradeLi0ELb0EE5__getB7v160006Ev, symObjAddr: 0x69B8, symBinAddr: 0x10000846C, symSize: 0x14 }
  - { offsetInCU: 0x1A7BA, offset: 0x1A7BA, size: 0x8, addend: 0x0, symName: __ZNSt3__16vectorI5TradeNS_9allocatorIS1_EEE21_ConstructTransactionC1B7v160006ERS4_m, symObjAddr: 0x69CC, symBinAddr: 0x100008480, symSize: 0x3C }
  - { offsetInCU: 0x1A802, offset: 0x1A802, size: 0x8, addend: 0x0, symName: __ZNSt3__116allocator_traitsINS_9allocatorI5TradeEEE9constructB7v160006IS2_JS2_EvEEvRS3_PT_DpOT0_, symObjAddr: 0x6A08, symBinAddr: 0x1000084BC, symSize: 0x34 }
  - { offsetInCU: 0x1A859, offset: 0x1A859, size: 0x8, addend: 0x0, symName: __ZNSt3__16vectorI5TradeNS_9allocatorIS1_EEE7__allocB7v160006Ev, symObjAddr: 0x6A3C, symBinAddr: 0x1000084F0, symSize: 0x28 }
  - { offsetInCU: 0x1A87F, offset: 0x1A87F, size: 0x8, addend: 0x0, symName: __ZNSt3__16vectorI5TradeNS_9allocatorIS1_EEE21_ConstructTransactionD1B7v160006Ev, symObjAddr: 0x6A78, symBinAddr: 0x10000852C, symSize: 0x2C }
  - { offsetInCU: 0x1A8A9, offset: 0x1A8A9, size: 0x8, addend: 0x0, symName: __ZNSt3__16vectorI5TradeNS_9allocatorIS1_EEE21_ConstructTransactionC2B7v160006ERS4_m, symObjAddr: 0x6AA4, symBinAddr: 0x100008558, symSize: 0x4C }
  - { offsetInCU: 0x1A8F1, offset: 0x1A8F1, size: 0x8, addend: 0x0, symName: __ZNSt3__19allocatorI5TradeE9constructB7v160006IS1_JS1_EEEvPT_DpOT0_, symObjAddr: 0x6AF0, symBinAddr: 0x1000085A4, symSize: 0x30 }
  - { offsetInCU: 0x1A947, offset: 0x1A947, size: 0x8, addend: 0x0, symName: __ZNSt3__117__compressed_pairIP5TradeNS_9allocatorIS1_EEE6secondB7v160006Ev, symObjAddr: 0x6B20, symBinAddr: 0x1000085D4, symSize: 0x24 }
  - { offsetInCU: 0x1A96D, offset: 0x1A96D, size: 0x8, addend: 0x0, symName: __ZNSt3__122__compressed_pair_elemINS_9allocatorI5TradeEELi1ELb1EE5__getB7v160006Ev, symObjAddr: 0x6B44, symBinAddr: 0x1000085F8, symSize: 0x14 }
  - { offsetInCU: 0x1A993, offset: 0x1A993, size: 0x8, addend: 0x0, symName: __ZNSt3__16vectorI5TradeNS_9allocatorIS1_EEE21_ConstructTransactionD2B7v160006Ev, symObjAddr: 0x6B58, symBinAddr: 0x10000860C, symSize: 0x20 }
  - { offsetInCU: 0x1A9BD, offset: 0x1A9BD, size: 0x8, addend: 0x0, symName: __ZNKSt3__16vectorI5TradeNS_9allocatorIS1_EEE11__recommendB7v160006Em, symObjAddr: 0x6B78, symBinAddr: 0x10000862C, symSize: 0xB4 }
  - { offsetInCU: 0x1AA12, offset: 0x1AA12, size: 0x8, addend: 0x0, symName: __ZNKSt3__16vectorI5TradeNS_9allocatorIS1_EEE4sizeB7v160006Ev, symObjAddr: 0x6C2C, symBinAddr: 0x1000086E0, symSize: 0x28 }
  - { offsetInCU: 0x1AA38, offset: 0x1AA38, size: 0x8, addend: 0x0, symName: __ZNSt3__114__split_bufferI5TradeRNS_9allocatorIS1_EEEC1EmmS4_, symObjAddr: 0x6C54, symBinAddr: 0x100008708, symSize: 0x44 }
  - { offsetInCU: 0x1AA8E, offset: 0x1AA8E, size: 0x8, addend: 0x0, symName: __ZNSt3__114__split_bufferI5TradeRNS_9allocatorIS1_EEED1Ev, symObjAddr: 0x6DB0, symBinAddr: 0x100008864, symSize: 0x2C }
  - { offsetInCU: 0x1AABA, offset: 0x1AABA, size: 0x8, addend: 0x0, symName: __ZNKSt3__16vectorI5TradeNS_9allocatorIS1_EEE8max_sizeEv, symObjAddr: 0x6DDC, symBinAddr: 0x100008890, symSize: 0x74 }
  - { offsetInCU: 0x1AAE2, offset: 0x1AAE2, size: 0x8, addend: 0x0, symName: __ZNKSt3__16vectorI5TradeNS_9allocatorIS1_EEE20__throw_length_errorB7v160006Ev, symObjAddr: 0x6E50, symBinAddr: 0x100008904, symSize: 0x1C }
  - { offsetInCU: 0x1AB08, offset: 0x1AB08, size: 0x8, addend: 0x0, symName: __ZNKSt3__16vectorI5TradeNS_9allocatorIS1_EEE8capacityB7v160006Ev, symObjAddr: 0x6E6C, symBinAddr: 0x100008920, symSize: 0x40 }
  - { offsetInCU: 0x1AB38, offset: 0x1AB38, size: 0x8, addend: 0x0, symName: __ZNSt3__116allocator_traitsINS_9allocatorI5TradeEEE8max_sizeB7v160006IS3_vEEmRKS3_, symObjAddr: 0x6EAC, symBinAddr: 0x100008960, symSize: 0x24 }
  - { offsetInCU: 0x1AB66, offset: 0x1AB66, size: 0x8, addend: 0x0, symName: __ZNKSt3__16vectorI5TradeNS_9allocatorIS1_EEE7__allocB7v160006Ev, symObjAddr: 0x6ED0, symBinAddr: 0x100008984, symSize: 0x28 }
  - { offsetInCU: 0x1AB8C, offset: 0x1AB8C, size: 0x8, addend: 0x0, symName: __ZNKSt3__19allocatorI5TradeE8max_sizeB7v160006Ev, symObjAddr: 0x6EF8, symBinAddr: 0x1000089AC, symSize: 0x18 }
  - { offsetInCU: 0x1ABB2, offset: 0x1ABB2, size: 0x8, addend: 0x0, symName: __ZNKSt3__117__compressed_pairIP5TradeNS_9allocatorIS1_EEE6secondB7v160006Ev, symObjAddr: 0x6F10, symBinAddr: 0x1000089C4, symSize: 0x24 }
  - { offsetInCU: 0x1ABD8, offset: 0x1ABD8, size: 0x8, addend: 0x0, symName: __ZNKSt3__122__compressed_pair_elemINS_9allocatorI5TradeEELi1ELb1EE5__getB7v160006Ev, symObjAddr: 0x6F34, symBinAddr: 0x1000089E8, symSize: 0x14 }
  - { offsetInCU: 0x1ABFE, offset: 0x1ABFE, size: 0x8, addend: 0x0, symName: __ZNKSt3__16vectorI5TradeNS_9allocatorIS1_EEE9__end_capB7v160006Ev, symObjAddr: 0x6F48, symBinAddr: 0x1000089FC, symSize: 0x28 }
  - { offsetInCU: 0x1AC24, offset: 0x1AC24, size: 0x8, addend: 0x0, symName: __ZNKSt3__117__compressed_pairIP5TradeNS_9allocatorIS1_EEE5firstB7v160006Ev, symObjAddr: 0x6F70, symBinAddr: 0x100008A24, symSize: 0x24 }
  - { offsetInCU: 0x1AC4A, offset: 0x1AC4A, size: 0x8, addend: 0x0, symName: __ZNKSt3__122__compressed_pair_elemIP5TradeLi0ELb0EE5__getB7v160006Ev, symObjAddr: 0x6F94, symBinAddr: 0x100008A48, symSize: 0x14 }
  - { offsetInCU: 0x1AC70, offset: 0x1AC70, size: 0x8, addend: 0x0, symName: __ZNSt3__114__split_bufferI5TradeRNS_9allocatorIS1_EEEC2EmmS4_, symObjAddr: 0x6FA8, symBinAddr: 0x100008A5C, symSize: 0xE0 }
  - { offsetInCU: 0x1ACE4, offset: 0x1ACE4, size: 0x8, addend: 0x0, symName: __ZNSt3__117__compressed_pairIP5TradeRNS_9allocatorIS1_EEEC1B7v160006IDnS5_EEOT_OT0_, symObjAddr: 0x7088, symBinAddr: 0x100008B3C, symSize: 0x3C }
  - { offsetInCU: 0x1AD3C, offset: 0x1AD3C, size: 0x8, addend: 0x0, symName: __ZNSt3__114__split_bufferI5TradeRNS_9allocatorIS1_EEE7__allocB7v160006Ev, symObjAddr: 0x7104, symBinAddr: 0x100008BB8, symSize: 0x28 }
  - { offsetInCU: 0x1AD62, offset: 0x1AD62, size: 0x8, addend: 0x0, symName: __ZNSt3__114__split_bufferI5TradeRNS_9allocatorIS1_EEE9__end_capB7v160006Ev, symObjAddr: 0x712C, symBinAddr: 0x100008BE0, symSize: 0x28 }
  - { offsetInCU: 0x1AD88, offset: 0x1AD88, size: 0x8, addend: 0x0, symName: __ZNSt3__117__compressed_pairIP5TradeRNS_9allocatorIS1_EEEC2B7v160006IDnS5_EEOT_OT0_, symObjAddr: 0x7154, symBinAddr: 0x100008C08, symSize: 0x48 }
  - { offsetInCU: 0x1ADE0, offset: 0x1ADE0, size: 0x8, addend: 0x0, symName: __ZNSt3__122__compressed_pair_elemIRNS_9allocatorI5TradeEELi1ELb0EEC2B7v160006IS4_vEEOT_, symObjAddr: 0x719C, symBinAddr: 0x100008C50, symSize: 0x20 }
  - { offsetInCU: 0x1AE22, offset: 0x1AE22, size: 0x8, addend: 0x0, symName: __ZNSt3__19allocatorI5TradeE8allocateB7v160006Em, symObjAddr: 0x71BC, symBinAddr: 0x100008C70, symSize: 0x8C }
  - { offsetInCU: 0x1AE56, offset: 0x1AE56, size: 0x8, addend: 0x0, symName: __ZNSt3__117__compressed_pairIP5TradeRNS_9allocatorIS1_EEE6secondB7v160006Ev, symObjAddr: 0x7248, symBinAddr: 0x100008CFC, symSize: 0x28 }
  - { offsetInCU: 0x1AE7C, offset: 0x1AE7C, size: 0x8, addend: 0x0, symName: __ZNSt3__122__compressed_pair_elemIRNS_9allocatorI5TradeEELi1ELb0EE5__getB7v160006Ev, symObjAddr: 0x7270, symBinAddr: 0x100008D24, symSize: 0x18 }
  - { offsetInCU: 0x1AEA2, offset: 0x1AEA2, size: 0x8, addend: 0x0, symName: __ZNSt3__117__compressed_pairIP5TradeRNS_9allocatorIS1_EEE5firstB7v160006Ev, symObjAddr: 0x7288, symBinAddr: 0x100008D3C, symSize: 0x24 }
  - { offsetInCU: 0x1AEC8, offset: 0x1AEC8, size: 0x8, addend: 0x0, symName: __ZNKSt3__16vectorI5TradeNS_9allocatorIS1_EEE17__annotate_deleteB7v160006Ev, symObjAddr: 0x72AC, symBinAddr: 0x100008D60, symSize: 0xD4 }
  - { offsetInCU: 0x1AEEE, offset: 0x1AEEE, size: 0x8, addend: 0x0, symName: __ZNSt3__116reverse_iteratorIP5TradeEC1B7v160006ES2_, symObjAddr: 0x7468, symBinAddr: 0x100008F1C, symSize: 0x34 }
  - { offsetInCU: 0x1AF26, offset: 0x1AF26, size: 0x8, addend: 0x0, symName: __ZNKSt3__116reverse_iteratorIP5TradeE4baseB7v160006Ev, symObjAddr: 0x749C, symBinAddr: 0x100008F50, symSize: 0x18 }
  - { offsetInCU: 0x1AF4C, offset: 0x1AF4C, size: 0x8, addend: 0x0, symName: __ZNKSt3__16vectorI5TradeNS_9allocatorIS1_EEE14__annotate_newB7v160006Em, symObjAddr: 0x74F0, symBinAddr: 0x100008FA4, symSize: 0xC8 }
  - { offsetInCU: 0x1AF81, offset: 0x1AF81, size: 0x8, addend: 0x0, symName: __ZNKSt3__16vectorI5TradeNS_9allocatorIS1_EEE31__annotate_contiguous_containerB7v160006EPKvS6_S6_S6_, symObjAddr: 0x75C8, symBinAddr: 0x10000907C, symSize: 0x20 }
  - { offsetInCU: 0x1AFD3, offset: 0x1AFD3, size: 0x8, addend: 0x0, symName: __ZNKSt3__16vectorI5TradeNS_9allocatorIS1_EEE4dataB7v160006Ev, symObjAddr: 0x75E8, symBinAddr: 0x10000909C, symSize: 0x28 }
  - { offsetInCU: 0x1AFF9, offset: 0x1AFF9, size: 0x8, addend: 0x0, symName: __ZNKSt3__116reverse_iteratorIP5TradeEdeB7v160006Ev, symObjAddr: 0x76B0, symBinAddr: 0x100009164, symSize: 0x28 }
  - { offsetInCU: 0x1B02D, offset: 0x1B02D, size: 0x8, addend: 0x0, symName: __ZNSt3__116reverse_iteratorIP5TradeEppB7v160006Ev, symObjAddr: 0x76D8, symBinAddr: 0x10000918C, symSize: 0x20 }
  - { offsetInCU: 0x1B058, offset: 0x1B058, size: 0x8, addend: 0x0, symName: __ZNSt3__119__to_address_helperINS_16reverse_iteratorIP5TradeEEvE6__callB7v160006ERKS4_, symObjAddr: 0x7770, symBinAddr: 0x100009224, symSize: 0x4C }
  - { offsetInCU: 0x1B07B, offset: 0x1B07B, size: 0x8, addend: 0x0, symName: __ZNKSt3__116reverse_iteratorIP5TradeEptB7v160006Ev, symObjAddr: 0x77BC, symBinAddr: 0x100009270, symSize: 0x24 }
  - { offsetInCU: 0x1B0C5, offset: 0x1B0C5, size: 0x8, addend: 0x0, symName: __ZNKSt3__111__move_loopINS_17_ClassicAlgPolicyEEclB7v160006INS_16reverse_iteratorIP5TradeEES7_S7_EENS_4pairIT_T1_EES9_T0_SA_, symObjAddr: 0x7A70, symBinAddr: 0x100009524, symSize: 0xA8 }
  - { offsetInCU: 0x1B130, offset: 0x1B130, size: 0x8, addend: 0x0, symName: __ZNSt3__18_IterOpsINS_17_ClassicAlgPolicyEE11__iter_moveB7v160006IRNS_16reverse_iteratorIP5TradeEEEENS_9enable_ifIXsr12is_referenceIDTdeclsr3stdE7declvalIRT_EEEEE5valueEDTclsr3stdE4movedeclsr3stdE7declvalISB_EEEEE4typeEOSA_, symObjAddr: 0x7C78, symBinAddr: 0x10000972C, symSize: 0x28 }
  - { offsetInCU: 0x1B15C, offset: 0x1B15C, size: 0x8, addend: 0x0, symName: __ZNSt3__18_IterOpsINS_17_ClassicAlgPolicyEE25__validate_iter_referenceB7v160006IRNS_16reverse_iteratorIP5TradeEEEEvv, symObjAddr: 0x7CA0, symBinAddr: 0x100009754, symSize: 0x4 }
  - { offsetInCU: 0x1B17A, offset: 0x1B17A, size: 0x8, addend: 0x0, symName: __ZNSt3__118__unwrap_iter_implINS_16reverse_iteratorIP5TradeEELb0EE8__unwrapB7v160006ES4_, symObjAddr: 0x7CA4, symBinAddr: 0x100009758, symSize: 0x24 }
  - { offsetInCU: 0x1B19D, offset: 0x1B19D, size: 0x8, addend: 0x0, symName: __ZNSt3__14pairINS_16reverse_iteratorIP5TradeEES4_EC1B7v160006ERKS4_S7_, symObjAddr: 0x7CC8, symBinAddr: 0x10000977C, symSize: 0x3C }
  - { offsetInCU: 0x1B1E3, offset: 0x1B1E3, size: 0x8, addend: 0x0, symName: __ZNSt3__14pairINS_16reverse_iteratorIP5TradeEES4_EC2B7v160006ERKS4_S7_, symObjAddr: 0x7D04, symBinAddr: 0x1000097B8, symSize: 0x34 }
  - { offsetInCU: 0x1B229, offset: 0x1B229, size: 0x8, addend: 0x0, symName: __ZNSt3__118__unwrap_iter_implINS_16reverse_iteratorIP5TradeEELb0EE8__rewrapB7v160006ES4_S4_, symObjAddr: 0x7D38, symBinAddr: 0x1000097EC, symSize: 0x2C }
  - { offsetInCU: 0x1B257, offset: 0x1B257, size: 0x8, addend: 0x0, symName: __ZNSt3__116reverse_iteratorIP5TradeEC2B7v160006ES2_, symObjAddr: 0x7D64, symBinAddr: 0x100009818, symSize: 0x28 }
  - { offsetInCU: 0x1B28F, offset: 0x1B28F, size: 0x8, addend: 0x0, symName: __ZNSt3__114__split_bufferI5TradeRNS_9allocatorIS1_EEED2Ev, symObjAddr: 0x7D8C, symBinAddr: 0x100009840, symSize: 0x80 }
  - { offsetInCU: 0x1B2BB, offset: 0x1B2BB, size: 0x8, addend: 0x0, symName: __ZNSt3__114__split_bufferI5TradeRNS_9allocatorIS1_EEE5clearB7v160006Ev, symObjAddr: 0x7E0C, symBinAddr: 0x1000098C0, symSize: 0x28 }
  - { offsetInCU: 0x1B2E1, offset: 0x1B2E1, size: 0x8, addend: 0x0, symName: __ZNSt3__116allocator_traitsINS_9allocatorI5TradeEEE10deallocateB7v160006ERS3_PS2_m, symObjAddr: 0x7E34, symBinAddr: 0x1000098E8, symSize: 0x34 }
  - { offsetInCU: 0x1B323, offset: 0x1B323, size: 0x8, addend: 0x0, symName: __ZNKSt3__114__split_bufferI5TradeRNS_9allocatorIS1_EEE8capacityB7v160006Ev, symObjAddr: 0x7E68, symBinAddr: 0x10000991C, symSize: 0x40 }
  - { offsetInCU: 0x1B349, offset: 0x1B349, size: 0x8, addend: 0x0, symName: __ZNSt3__114__split_bufferI5TradeRNS_9allocatorIS1_EEE17__destruct_at_endB7v160006EPS1_, symObjAddr: 0x7EA8, symBinAddr: 0x10000995C, symSize: 0x2C }
  - { offsetInCU: 0x1B37D, offset: 0x1B37D, size: 0x8, addend: 0x0, symName: __ZNSt3__114__split_bufferI5TradeRNS_9allocatorIS1_EEE17__destruct_at_endB7v160006EPS1_NS_17integral_constantIbLb0EEE, symObjAddr: 0x7ED4, symBinAddr: 0x100009988, symSize: 0x94 }
  - { offsetInCU: 0x1B3BE, offset: 0x1B3BE, size: 0x8, addend: 0x0, symName: __ZNSt3__116allocator_traitsINS_9allocatorI5TradeEEE7destroyB7v160006IS2_vEEvRS3_PT_, symObjAddr: 0x7F68, symBinAddr: 0x100009A1C, symSize: 0x2C }
  - { offsetInCU: 0x1B3FB, offset: 0x1B3FB, size: 0x8, addend: 0x0, symName: __ZNSt3__19allocatorI5TradeE7destroyB7v160006EPS1_, symObjAddr: 0x7F94, symBinAddr: 0x100009A48, symSize: 0x14 }
  - { offsetInCU: 0x1B42F, offset: 0x1B42F, size: 0x8, addend: 0x0, symName: __ZNSt3__19allocatorI5TradeE10deallocateB7v160006EPS1_m, symObjAddr: 0x7FA8, symBinAddr: 0x100009A5C, symSize: 0x74 }
  - { offsetInCU: 0x1B471, offset: 0x1B471, size: 0x8, addend: 0x0, symName: __ZNKSt3__114__split_bufferI5TradeRNS_9allocatorIS1_EEE9__end_capB7v160006Ev, symObjAddr: 0x801C, symBinAddr: 0x100009AD0, symSize: 0x28 }
  - { offsetInCU: 0x1B497, offset: 0x1B497, size: 0x8, addend: 0x0, symName: __ZNKSt3__117__compressed_pairIP5TradeRNS_9allocatorIS1_EEE5firstB7v160006Ev, symObjAddr: 0x8044, symBinAddr: 0x100009AF8, symSize: 0x24 }
  - { offsetInCU: 0x1B4BD, offset: 0x1B4BD, size: 0x8, addend: 0x0, symName: __ZN5TradeC2Eiiid, symObjAddr: 0x8068, symBinAddr: 0x100009B1C, symSize: 0x44 }
  - { offsetInCU: 0x1B51F, offset: 0x1B51F, size: 0x8, addend: 0x0, symName: __ZN10PriceLevel5resetEd, symObjAddr: 0x80AC, symBinAddr: 0x100009B60, symSize: 0x38 }
  - { offsetInCU: 0x1B553, offset: 0x1B553, size: 0x8, addend: 0x0, symName: __ZNSt3__112__hash_tableINS_17__hash_value_typeIdiEENS_22__unordered_map_hasherIdS2_NS_4hashIdEENS_8equal_toIdEELb1EEENS_21__unordered_map_equalIdS2_S7_S5_Lb1EEENS_9allocatorIS2_EEE14__erase_uniqueIdEEmRKT_, symObjAddr: 0x80E4, symBinAddr: 0x100009B98, symSize: 0x98 }
  - { offsetInCU: 0x1B5A2, offset: 0x1B5A2, size: 0x8, addend: 0x0, symName: __ZNSt3__112__hash_tableINS_17__hash_value_typeIdiEENS_22__unordered_map_hasherIdS2_NS_4hashIdEENS_8equal_toIdEELb1EEENS_21__unordered_map_equalIdS2_S7_S5_Lb1EEENS_9allocatorIS2_EEE4findIdEENS_15__hash_iteratorIPNS_11__hash_nodeIS2_PvEEEERKT_, symObjAddr: 0x817C, symBinAddr: 0x100009C30, symSize: 0x1B4 }
  - { offsetInCU: 0x1B62D, offset: 0x1B62D, size: 0x8, addend: 0x0, symName: __ZNSt3__112__hash_tableINS_17__hash_value_typeIdiEENS_22__unordered_map_hasherIdS2_NS_4hashIdEENS_8equal_toIdEELb1EEENS_21__unordered_map_equalIdS2_S7_S5_Lb1EEENS_9allocatorIS2_EEE3endEv, symObjAddr: 0x8360, symBinAddr: 0x100009E14, symSize: 0x30 }
  - { offsetInCU: 0x1B655, offset: 0x1B655, size: 0x8, addend: 0x0, symName: __ZNSt3__112__hash_tableINS_17__hash_value_typeIdiEENS_22__unordered_map_hasherIdS2_NS_4hashIdEENS_8equal_toIdEELb1EEENS_21__unordered_map_equalIdS2_S7_S5_Lb1EEENS_9allocatorIS2_EEE5eraseENS_21__hash_const_iteratorIPNS_11__hash_nodeIS2_PvEEEE, symObjAddr: 0x8390, symBinAddr: 0x100009E44, symSize: 0x70 }
  - { offsetInCU: 0x1B6AA, offset: 0x1B6AA, size: 0x8, addend: 0x0, symName: __ZNSt3__121__hash_const_iteratorIPNS_11__hash_nodeINS_17__hash_value_typeIdiEEPvEEEC1B7v160006ERKNS_15__hash_iteratorIS6_EE, symObjAddr: 0x8400, symBinAddr: 0x100009EB4, symSize: 0x34 }
  - { offsetInCU: 0x1B6E3, offset: 0x1B6E3, size: 0x8, addend: 0x0, symName: __ZNSt3__112__hash_tableINS_17__hash_value_typeIdiEENS_22__unordered_map_hasherIdS2_NS_4hashIdEENS_8equal_toIdEELb1EEENS_21__unordered_map_equalIdS2_S7_S5_Lb1EEENS_9allocatorIS2_EEE13hash_functionB7v160006Ev, symObjAddr: 0x8434, symBinAddr: 0x100009EE8, symSize: 0x28 }
  - { offsetInCU: 0x1B709, offset: 0x1B709, size: 0x8, addend: 0x0, symName: __ZNKSt3__122__unordered_map_hasherIdNS_17__hash_value_typeIdiEENS_4hashIdEENS_8equal_toIdEELb1EEclB7v160006ERKd, symObjAddr: 0x845C, symBinAddr: 0x100009F10, symSize: 0x30 }
  - { offsetInCU: 0x1B73E, offset: 0x1B73E, size: 0x8, addend: 0x0, symName: __ZNKSt3__112__hash_tableINS_17__hash_value_typeIdiEENS_22__unordered_map_hasherIdS2_NS_4hashIdEENS_8equal_toIdEELb1EEENS_21__unordered_map_equalIdS2_S7_S5_Lb1EEENS_9allocatorIS2_EEE12bucket_countB7v160006Ev, symObjAddr: 0x848C, symBinAddr: 0x100009F40, symSize: 0x28 }
  - { offsetInCU: 0x1B764, offset: 0x1B764, size: 0x8, addend: 0x0, symName: __ZNKSt3__110unique_ptrIA_PNS_16__hash_node_baseIPNS_11__hash_nodeINS_17__hash_value_typeIdiEEPvEEEENS_25__bucket_list_deallocatorINS_9allocatorIS9_EEEEEixB7v160006Em, symObjAddr: 0x84B4, symBinAddr: 0x100009F68, symSize: 0x34 }
  - { offsetInCU: 0x1B799, offset: 0x1B799, size: 0x8, addend: 0x0, symName: __ZNKSt3__116__hash_node_baseIPNS_11__hash_nodeINS_17__hash_value_typeIdiEEPvEEE6__hashB7v160006Ev, symObjAddr: 0x84E8, symBinAddr: 0x100009F9C, symSize: 0x18 }
  - { offsetInCU: 0x1B7BF, offset: 0x1B7BF, size: 0x8, addend: 0x0, symName: __ZNSt3__112__hash_tableINS_17__hash_value_typeIdiEENS_22__unordered_map_hasherIdS2_NS_4hashIdEENS_8equal_toIdEELb1EEENS_21__unordered_map_equalIdS2_S7_S5_Lb1EEENS_9allocatorIS2_EEE6key_eqB7v160006Ev, symObjAddr: 0x8500, symBinAddr: 0x100009FB4, symSize: 0x28 }
  - { offsetInCU: 0x1B7E5, offset: 0x1B7E5, size: 0x8, addend: 0x0, symName: __ZNKSt3__121__unordered_map_equalIdNS_17__hash_value_typeIdiEENS_8equal_toIdEENS_4hashIdEELb1EEclB7v160006ERKS2_RKd, symObjAddr: 0x8528, symBinAddr: 0x100009FDC, symSize: 0x48 }
  - { offsetInCU: 0x1B829, offset: 0x1B829, size: 0x8, addend: 0x0, symName: __ZNSt3__117__compressed_pairImNS_22__unordered_map_hasherIdNS_17__hash_value_typeIdiEENS_4hashIdEENS_8equal_toIdEELb1EEEE6secondB7v160006Ev, symObjAddr: 0x8570, symBinAddr: 0x10000A024, symSize: 0x24 }
  - { offsetInCU: 0x1B84F, offset: 0x1B84F, size: 0x8, addend: 0x0, symName: __ZNSt3__122__compressed_pair_elemINS_22__unordered_map_hasherIdNS_17__hash_value_typeIdiEENS_4hashIdEENS_8equal_toIdEELb1EEELi1ELb1EE5__getB7v160006Ev, symObjAddr: 0x8594, symBinAddr: 0x10000A048, symSize: 0x14 }
  - { offsetInCU: 0x1B875, offset: 0x1B875, size: 0x8, addend: 0x0, symName: __ZNKSt3__14hashIdEclB7v160006Ed, symObjAddr: 0x85A8, symBinAddr: 0x10000A05C, symSize: 0x5C }
  - { offsetInCU: 0x1B8AA, offset: 0x1B8AA, size: 0x8, addend: 0x0, symName: __ZNKSt3__113__scalar_hashIdLm1EEclB7v160006Ed, symObjAddr: 0x8604, symBinAddr: 0x10000A0B8, symSize: 0x20 }
  - { offsetInCU: 0x1B910, offset: 0x1B910, size: 0x8, addend: 0x0, symName: __ZNKSt3__110unique_ptrIA_PNS_16__hash_node_baseIPNS_11__hash_nodeINS_17__hash_value_typeIdiEEPvEEEENS_25__bucket_list_deallocatorINS_9allocatorIS9_EEEEE11get_deleterB7v160006Ev, symObjAddr: 0x8624, symBinAddr: 0x10000A0D8, symSize: 0x24 }
  - { offsetInCU: 0x1B936, offset: 0x1B936, size: 0x8, addend: 0x0, symName: __ZNKSt3__125__bucket_list_deallocatorINS_9allocatorIPNS_16__hash_node_baseIPNS_11__hash_nodeINS_17__hash_value_typeIdiEEPvEEEEEEE4sizeB7v160006Ev, symObjAddr: 0x8648, symBinAddr: 0x10000A0FC, symSize: 0x28 }
  - { offsetInCU: 0x1B95C, offset: 0x1B95C, size: 0x8, addend: 0x0, symName: __ZNKSt3__117__compressed_pairIPPNS_16__hash_node_baseIPNS_11__hash_nodeINS_17__hash_value_typeIdiEEPvEEEENS_25__bucket_list_deallocatorINS_9allocatorIS9_EEEEE6secondB7v160006Ev, symObjAddr: 0x8670, symBinAddr: 0x10000A124, symSize: 0x28 }
  - { offsetInCU: 0x1B982, offset: 0x1B982, size: 0x8, addend: 0x0, symName: __ZNKSt3__122__compressed_pair_elemINS_25__bucket_list_deallocatorINS_9allocatorIPNS_16__hash_node_baseIPNS_11__hash_nodeINS_17__hash_value_typeIdiEEPvEEEEEEEELi1ELb0EE5__getB7v160006Ev, symObjAddr: 0x8698, symBinAddr: 0x10000A14C, symSize: 0x14 }
  - { offsetInCU: 0x1B9A8, offset: 0x1B9A8, size: 0x8, addend: 0x0, symName: __ZNKSt3__117__compressed_pairImNS_9allocatorIPNS_16__hash_node_baseIPNS_11__hash_nodeINS_17__hash_value_typeIdiEEPvEEEEEEE5firstB7v160006Ev, symObjAddr: 0x86AC, symBinAddr: 0x10000A160, symSize: 0x24 }
  - { offsetInCU: 0x1B9CE, offset: 0x1B9CE, size: 0x8, addend: 0x0, symName: __ZNKSt3__117__compressed_pairIPPNS_16__hash_node_baseIPNS_11__hash_nodeINS_17__hash_value_typeIdiEEPvEEEENS_25__bucket_list_deallocatorINS_9allocatorIS9_EEEEE5firstB7v160006Ev, symObjAddr: 0x86D0, symBinAddr: 0x10000A184, symSize: 0x24 }
  - { offsetInCU: 0x1B9F4, offset: 0x1B9F4, size: 0x8, addend: 0x0, symName: __ZNKSt3__122__compressed_pair_elemIPPNS_16__hash_node_baseIPNS_11__hash_nodeINS_17__hash_value_typeIdiEEPvEEEELi0ELb0EE5__getB7v160006Ev, symObjAddr: 0x86F4, symBinAddr: 0x10000A1A8, symSize: 0x14 }
  - { offsetInCU: 0x1BA1A, offset: 0x1BA1A, size: 0x8, addend: 0x0, symName: __ZNSt3__117__compressed_pairIfNS_21__unordered_map_equalIdNS_17__hash_value_typeIdiEENS_8equal_toIdEENS_4hashIdEELb1EEEE6secondB7v160006Ev, symObjAddr: 0x8708, symBinAddr: 0x10000A1BC, symSize: 0x24 }
  - { offsetInCU: 0x1BA40, offset: 0x1BA40, size: 0x8, addend: 0x0, symName: __ZNSt3__122__compressed_pair_elemINS_21__unordered_map_equalIdNS_17__hash_value_typeIdiEENS_8equal_toIdEENS_4hashIdEELb1EEELi1ELb1EE5__getB7v160006Ev, symObjAddr: 0x872C, symBinAddr: 0x10000A1E0, symSize: 0x14 }
  - { offsetInCU: 0x1BA66, offset: 0x1BA66, size: 0x8, addend: 0x0, symName: __ZNKSt3__18equal_toIdEclB7v160006ERKdS3_, symObjAddr: 0x8740, symBinAddr: 0x10000A1F4, symSize: 0x34 }
  - { offsetInCU: 0x1BAAA, offset: 0x1BAAA, size: 0x8, addend: 0x0, symName: __ZNKSt3__117__hash_value_typeIdiE11__get_valueB7v160006Ev, symObjAddr: 0x8774, symBinAddr: 0x10000A228, symSize: 0x14 }
  - { offsetInCU: 0x1BAD0, offset: 0x1BAD0, size: 0x8, addend: 0x0, symName: __ZNSt3__115__hash_iteratorIPNS_11__hash_nodeINS_17__hash_value_typeIdiEEPvEEEppB7v160006Ev, symObjAddr: 0x8788, symBinAddr: 0x10000A23C, symSize: 0x20 }
  - { offsetInCU: 0x1BAF6, offset: 0x1BAF6, size: 0x8, addend: 0x0, symName: __ZNSt3__112__hash_tableINS_17__hash_value_typeIdiEENS_22__unordered_map_hasherIdS2_NS_4hashIdEENS_8equal_toIdEELb1EEENS_21__unordered_map_equalIdS2_S7_S5_Lb1EEENS_9allocatorIS2_EEE6removeENS_21__hash_const_iteratorIPNS_11__hash_nodeIS2_PvEEEE, symObjAddr: 0x87A8, symBinAddr: 0x10000A25C, symSize: 0x220 }
  - { offsetInCU: 0x1BB88, offset: 0x1BB88, size: 0x8, addend: 0x0, symName: __ZNSt3__110unique_ptrINS_11__hash_nodeINS_17__hash_value_typeIdiEEPvEENS_22__hash_node_destructorINS_9allocatorIS5_EEEEED1B7v160006Ev, symObjAddr: 0x89C8, symBinAddr: 0x10000A47C, symSize: 0x2C }
  - { offsetInCU: 0x1BBB2, offset: 0x1BBB2, size: 0x8, addend: 0x0, symName: __ZNSt3__116__hash_node_baseIPNS_11__hash_nodeINS_17__hash_value_typeIdiEEPvEEE5__ptrB7v160006Ev, symObjAddr: 0x89F4, symBinAddr: 0x10000A4A8, symSize: 0x24 }
  - { offsetInCU: 0x1BBD8, offset: 0x1BBD8, size: 0x8, addend: 0x0, symName: __ZNSt3__112__hash_tableINS_17__hash_value_typeIdiEENS_22__unordered_map_hasherIdS2_NS_4hashIdEENS_8equal_toIdEELb1EEENS_21__unordered_map_equalIdS2_S7_S5_Lb1EEENS_9allocatorIS2_EEE4sizeB7v160006Ev, symObjAddr: 0x8A18, symBinAddr: 0x10000A4CC, symSize: 0x28 }
  - { offsetInCU: 0x1BBFE, offset: 0x1BBFE, size: 0x8, addend: 0x0, symName: __ZNSt3__122__hash_node_destructorINS_9allocatorINS_11__hash_nodeINS_17__hash_value_typeIdiEEPvEEEEEC1B7v160006ERS7_b, symObjAddr: 0x8A40, symBinAddr: 0x10000A4F4, symSize: 0x48 }
  - { offsetInCU: 0x1BC4C, offset: 0x1BC4C, size: 0x8, addend: 0x0, symName: __ZNSt3__110unique_ptrINS_11__hash_nodeINS_17__hash_value_typeIdiEEPvEENS_22__hash_node_destructorINS_9allocatorIS5_EEEEEC1B7v160006ILb1EvEEPS5_NS_16__dependent_typeINS_27__unique_ptr_deleter_sfinaeIS9_EEXT_EE20__good_rval_ref_typeE, symObjAddr: 0x8A88, symBinAddr: 0x10000A53C, symSize: 0x3C }
  - { offsetInCU: 0x1BC9D, offset: 0x1BC9D, size: 0x8, addend: 0x0, symName: __ZNSt3__117__compressed_pairImNS_22__unordered_map_hasherIdNS_17__hash_value_typeIdiEENS_4hashIdEENS_8equal_toIdEELb1EEEE5firstB7v160006Ev, symObjAddr: 0x8AC4, symBinAddr: 0x10000A578, symSize: 0x24 }
  - { offsetInCU: 0x1BCC3, offset: 0x1BCC3, size: 0x8, addend: 0x0, symName: __ZNSt3__122__hash_node_destructorINS_9allocatorINS_11__hash_nodeINS_17__hash_value_typeIdiEEPvEEEEEC2B7v160006ERS7_b, symObjAddr: 0x8AE8, symBinAddr: 0x10000A59C, symSize: 0x38 }
  - { offsetInCU: 0x1BD0B, offset: 0x1BD0B, size: 0x8, addend: 0x0, symName: __ZNSt3__110unique_ptrINS_11__hash_nodeINS_17__hash_value_typeIdiEEPvEENS_22__hash_node_destructorINS_9allocatorIS5_EEEEEC2B7v160006ILb1EvEEPS5_NS_16__dependent_typeINS_27__unique_ptr_deleter_sfinaeIS9_EEXT_EE20__good_rval_ref_typeE, symObjAddr: 0x8B20, symBinAddr: 0x10000A5D4, symSize: 0x5C }
  - { offsetInCU: 0x1BD5C, offset: 0x1BD5C, size: 0x8, addend: 0x0, symName: __ZNSt3__117__compressed_pairIPNS_11__hash_nodeINS_17__hash_value_typeIdiEEPvEENS_22__hash_node_destructorINS_9allocatorIS5_EEEEEC1B7v160006IRS6_SA_EEOT_OT0_, symObjAddr: 0x8B7C, symBinAddr: 0x10000A630, symSize: 0x3C }
  - { offsetInCU: 0x1BDB4, offset: 0x1BDB4, size: 0x8, addend: 0x0, symName: __ZNSt3__117__compressed_pairIPNS_11__hash_nodeINS_17__hash_value_typeIdiEEPvEENS_22__hash_node_destructorINS_9allocatorIS5_EEEEEC2B7v160006IRS6_SA_EEOT_OT0_, symObjAddr: 0x8BB8, symBinAddr: 0x10000A66C, symSize: 0x48 }
  - { offsetInCU: 0x1BE0C, offset: 0x1BE0C, size: 0x8, addend: 0x0, symName: __ZNSt3__122__compressed_pair_elemIPNS_11__hash_nodeINS_17__hash_value_typeIdiEEPvEELi0ELb0EEC2B7v160006IRS6_vEEOT_, symObjAddr: 0x8C00, symBinAddr: 0x10000A6B4, symSize: 0x24 }
  - { offsetInCU: 0x1BE4E, offset: 0x1BE4E, size: 0x8, addend: 0x0, symName: __ZNSt3__122__compressed_pair_elemINS_22__hash_node_destructorINS_9allocatorINS_11__hash_nodeINS_17__hash_value_typeIdiEEPvEEEEEELi1ELb0EEC2B7v160006IS9_vEEOT_, symObjAddr: 0x8C24, symBinAddr: 0x10000A6D8, symSize: 0x24 }
  - { offsetInCU: 0x1BE90, offset: 0x1BE90, size: 0x8, addend: 0x0, symName: __ZNSt3__110unique_ptrINS_11__hash_nodeINS_17__hash_value_typeIdiEEPvEENS_22__hash_node_destructorINS_9allocatorIS5_EEEEED2B7v160006Ev, symObjAddr: 0x8C48, symBinAddr: 0x10000A6FC, symSize: 0x30 }
  - { offsetInCU: 0x1BEBA, offset: 0x1BEBA, size: 0x8, addend: 0x0, symName: __ZNSt3__110unique_ptrINS_11__hash_nodeINS_17__hash_value_typeIdiEEPvEENS_22__hash_node_destructorINS_9allocatorIS5_EEEEE5resetB7v160006EPS5_, symObjAddr: 0x8C78, symBinAddr: 0x10000A72C, symSize: 0x78 }
  - { offsetInCU: 0x1BEFE, offset: 0x1BEFE, size: 0x8, addend: 0x0, symName: __ZNSt3__117__compressed_pairIPNS_11__hash_nodeINS_17__hash_value_typeIdiEEPvEENS_22__hash_node_destructorINS_9allocatorIS5_EEEEE5firstB7v160006Ev, symObjAddr: 0x8CF0, symBinAddr: 0x10000A7A4, symSize: 0x24 }
  - { offsetInCU: 0x1BF24, offset: 0x1BF24, size: 0x8, addend: 0x0, symName: __ZNSt3__117__compressed_pairIPNS_11__hash_nodeINS_17__hash_value_typeIdiEEPvEENS_22__hash_node_destructorINS_9allocatorIS5_EEEEE6secondB7v160006Ev, symObjAddr: 0x8D14, symBinAddr: 0x10000A7C8, symSize: 0x28 }
  - { offsetInCU: 0x1BF4A, offset: 0x1BF4A, size: 0x8, addend: 0x0, symName: __ZNSt3__122__hash_node_destructorINS_9allocatorINS_11__hash_nodeINS_17__hash_value_typeIdiEEPvEEEEEclB7v160006EPS6_, symObjAddr: 0x8D3C, symBinAddr: 0x10000A7F0, symSize: 0xA8 }
  - { offsetInCU: 0x1BF7F, offset: 0x1BF7F, size: 0x8, addend: 0x0, symName: __ZNSt3__122__compressed_pair_elemIPNS_11__hash_nodeINS_17__hash_value_typeIdiEEPvEELi0ELb0EE5__getB7v160006Ev, symObjAddr: 0x8DE4, symBinAddr: 0x10000A898, symSize: 0x14 }
  - { offsetInCU: 0x1BFA5, offset: 0x1BFA5, size: 0x8, addend: 0x0, symName: __ZNSt3__122__compressed_pair_elemINS_22__hash_node_destructorINS_9allocatorINS_11__hash_nodeINS_17__hash_value_typeIdiEEPvEEEEEELi1ELb0EE5__getB7v160006Ev, symObjAddr: 0x8DF8, symBinAddr: 0x10000A8AC, symSize: 0x14 }
  - { offsetInCU: 0x1BFCB, offset: 0x1BFCB, size: 0x8, addend: 0x0, symName: __ZNSt3__121__hash_const_iteratorIPNS_11__hash_nodeINS_17__hash_value_typeIdiEEPvEEEC2B7v160006ERKNS_15__hash_iteratorIS6_EE, symObjAddr: 0x8E0C, symBinAddr: 0x10000A8C0, symSize: 0x24 }
  - { offsetInCU: 0x1C004, offset: 0x1C004, size: 0x8, addend: 0x0, symName: __ZNSt3__113basic_ostreamIcNS_11char_traitsIcEEElsB7v160006EPFRS3_S4_E, symObjAddr: 0x8E30, symBinAddr: 0x10000A8E4, symSize: 0x2C }
  - { offsetInCU: 0x1C038, offset: 0x1C038, size: 0x8, addend: 0x0, symName: __ZNKSt3__16vectorI5TradeNS_9allocatorIS1_EEE5beginB7v160006Ev, symObjAddr: 0x8EB4, symBinAddr: 0x10000A968, symSize: 0x30 }
  - { offsetInCU: 0x1C060, offset: 0x1C060, size: 0x8, addend: 0x0, symName: __ZNKSt3__16vectorI5TradeNS_9allocatorIS1_EEE3endB7v160006Ev, symObjAddr: 0x8EE4, symBinAddr: 0x10000A998, symSize: 0x30 }
  - { offsetInCU: 0x1C088, offset: 0x1C088, size: 0x8, addend: 0x0, symName: __ZNKSt3__111__wrap_iterIPK5TradeEdeB7v160006Ev, symObjAddr: 0x8F48, symBinAddr: 0x10000A9FC, symSize: 0x18 }
  - { offsetInCU: 0x1C0AE, offset: 0x1C0AE, size: 0x8, addend: 0x0, symName: __ZN10OrderIndex11removeIndexEi, symObjAddr: 0x8F60, symBinAddr: 0x10000AA14, symSize: 0x60 }
  - { offsetInCU: 0x1C0F0, offset: 0x1C0F0, size: 0x8, addend: 0x0, symName: __ZNSt3__111__wrap_iterIPK5TradeEppB7v160006Ev, symObjAddr: 0x8FC0, symBinAddr: 0x10000AA74, symSize: 0x20 }
  - { offsetInCU: 0x1C116, offset: 0x1C116, size: 0x8, addend: 0x0, symName: __ZNKSt3__19basic_iosIcNS_11char_traitsIcEEE5widenB7v160006Ec, symObjAddr: 0x8FE0, symBinAddr: 0x10000AA94, symSize: 0x8C }
  - { offsetInCU: 0x1C184, offset: 0x1C184, size: 0x8, addend: 0x0, symName: __ZNKSt3__15ctypeIcE5widenB7v160006Ec, symObjAddr: 0x9098, symBinAddr: 0x10000AB4C, symSize: 0x38 }
  - { offsetInCU: 0x1C1B9, offset: 0x1C1B9, size: 0x8, addend: 0x0, symName: __ZNKSt3__16vectorI5TradeNS_9allocatorIS1_EEE11__make_iterB7v160006EPKS1_, symObjAddr: 0x90D0, symBinAddr: 0x10000AB84, symSize: 0x34 }
  - { offsetInCU: 0x1C1EE, offset: 0x1C1EE, size: 0x8, addend: 0x0, symName: __ZNSt3__111__wrap_iterIPK5TradeEC1B7v160006EPKvS3_, symObjAddr: 0x9104, symBinAddr: 0x10000ABB8, symSize: 0x3C }
  - { offsetInCU: 0x1C234, offset: 0x1C234, size: 0x8, addend: 0x0, symName: __ZNSt3__111__wrap_iterIPK5TradeEC2B7v160006EPKvS3_, symObjAddr: 0x9140, symBinAddr: 0x10000ABF4, symSize: 0x24 }
  - { offsetInCU: 0x1C27A, offset: 0x1C27A, size: 0x8, addend: 0x0, symName: __ZNKSt3__111__wrap_iterIPK5TradeE4baseB7v160006Ev, symObjAddr: 0x91AC, symBinAddr: 0x10000AC60, symSize: 0x18 }
  - { offsetInCU: 0x1C2A0, offset: 0x1C2A0, size: 0x8, addend: 0x0, symName: __ZNSt3__113unordered_mapIiiNS_4hashIiEENS_8equal_toIiEENS_9allocatorINS_4pairIKiiEEEEEixERS7_, symObjAddr: 0x91C4, symBinAddr: 0x10000AC78, symSize: 0x128 }
  - { offsetInCU: 0x1C305, offset: 0x1C305, size: 0x8, addend: 0x0, symName: __ZNSt3__113unordered_mapIiiNS_4hashIiEENS_8equal_toIiEENS_9allocatorINS_4pairIKiiEEEEE5eraseB7v160006ERS7_, symObjAddr: 0x92EC, symBinAddr: 0x10000ADA0, symSize: 0x2C }
  - { offsetInCU: 0x1C33A, offset: 0x1C33A, size: 0x8, addend: 0x0, symName: __ZN10OrderIndex5IndexC1Ei, symObjAddr: 0x9318, symBinAddr: 0x10000ADCC, symSize: 0x34 }
  - { offsetInCU: 0x1C372, offset: 0x1C372, size: 0x8, addend: 0x0, symName: __ZNSt3__113unordered_mapIiiNS_4hashIiEENS_8equal_toIiEENS_9allocatorINS_4pairIKiiEEEEE4findB7v160006ERS7_, symObjAddr: 0x934C, symBinAddr: 0x10000AE00, symSize: 0x40 }
  - { offsetInCU: 0x1C3A7, offset: 0x1C3A7, size: 0x8, addend: 0x0, symName: __ZNSt3__113unordered_mapIiiNS_4hashIiEENS_8equal_toIiEENS_9allocatorINS_4pairIKiiEEEEE3endB7v160006Ev, symObjAddr: 0x93BC, symBinAddr: 0x10000AE70, symSize: 0x38 }
  - { offsetInCU: 0x1C3CD, offset: 0x1C3CD, size: 0x8, addend: 0x0, symName: __ZNKSt3__119__hash_map_iteratorINS_15__hash_iteratorIPNS_11__hash_nodeINS_17__hash_value_typeIiiEEPvEEEEEptB7v160006Ev, symObjAddr: 0x93F4, symBinAddr: 0x10000AEA8, symSize: 0x2C }
  - { offsetInCU: 0x1C3F3, offset: 0x1C3F3, size: 0x8, addend: 0x0, symName: __ZNSt3__113unordered_mapIiiNS_4hashIiEENS_8equal_toIiEENS_9allocatorINS_4pairIKiiEEEEE25__construct_node_with_keyERS7_, symObjAddr: 0x9420, symBinAddr: 0x10000AED4, symSize: 0x144 }
  - { offsetInCU: 0x1C449, offset: 0x1C449, size: 0x8, addend: 0x0, symName: __ZNSt3__112__hash_tableINS_17__hash_value_typeIiiEENS_22__unordered_map_hasherIiS2_NS_4hashIiEENS_8equal_toIiEELb1EEENS_21__unordered_map_equalIiS2_S7_S5_Lb1EEENS_9allocatorIS2_EEE20__node_insert_uniqueEPNS_11__hash_nodeIS2_PvEE, symObjAddr: 0x9564, symBinAddr: 0x10000B018, symSize: 0xC8 }
  - { offsetInCU: 0x1C49E, offset: 0x1C49E, size: 0x8, addend: 0x0, symName: __ZNKSt3__110unique_ptrINS_11__hash_nodeINS_17__hash_value_typeIiiEEPvEENS_26__hash_map_node_destructorINS_9allocatorIS5_EEEEE3getB7v160006Ev, symObjAddr: 0x962C, symBinAddr: 0x10000B0E0, symSize: 0x28 }
  - { offsetInCU: 0x1C4C4, offset: 0x1C4C4, size: 0x8, addend: 0x0, symName: __ZNSt3__14pairINS_19__hash_map_iteratorINS_15__hash_iteratorIPNS_11__hash_nodeINS_17__hash_value_typeIiiEEPvEEEEEEbEC1B7v160006IS9_bEERKNS0_IT_T0_EE, symObjAddr: 0x9654, symBinAddr: 0x10000B108, symSize: 0x34 }
  - { offsetInCU: 0x1C50E, offset: 0x1C50E, size: 0x8, addend: 0x0, symName: __ZNSt3__110unique_ptrINS_11__hash_nodeINS_17__hash_value_typeIiiEEPvEENS_26__hash_map_node_destructorINS_9allocatorIS5_EEEEE7releaseB7v160006Ev, symObjAddr: 0x9688, symBinAddr: 0x10000B13C, symSize: 0x44 }
  - { offsetInCU: 0x1C543, offset: 0x1C543, size: 0x8, addend: 0x0, symName: __ZNSt3__110unique_ptrINS_11__hash_nodeINS_17__hash_value_typeIiiEEPvEENS_26__hash_map_node_destructorINS_9allocatorIS5_EEEEED1B7v160006Ev, symObjAddr: 0x96CC, symBinAddr: 0x10000B180, symSize: 0x2C }
  - { offsetInCU: 0x1C56D, offset: 0x1C56D, size: 0x8, addend: 0x0, symName: __ZNSt3__112__hash_tableINS_17__hash_value_typeIiiEENS_22__unordered_map_hasherIiS2_NS_4hashIiEENS_8equal_toIiEELb1EEENS_21__unordered_map_equalIiS2_S7_S5_Lb1EEENS_9allocatorIS2_EEE4findIiEENS_15__hash_iteratorIPNS_11__hash_nodeIS2_PvEEEERKT_, symObjAddr: 0x96F8, symBinAddr: 0x10000B1AC, symSize: 0x1B4 }
  - { offsetInCU: 0x1C5F8, offset: 0x1C5F8, size: 0x8, addend: 0x0, symName: __ZNSt3__119__hash_map_iteratorINS_15__hash_iteratorIPNS_11__hash_nodeINS_17__hash_value_typeIiiEEPvEEEEEC1B7v160006ES8_, symObjAddr: 0x98AC, symBinAddr: 0x10000B360, symSize: 0x34 }
  - { offsetInCU: 0x1C631, offset: 0x1C631, size: 0x8, addend: 0x0, symName: __ZNSt3__112__hash_tableINS_17__hash_value_typeIiiEENS_22__unordered_map_hasherIiS2_NS_4hashIiEENS_8equal_toIiEELb1EEENS_21__unordered_map_equalIiS2_S7_S5_Lb1EEENS_9allocatorIS2_EEE13hash_functionB7v160006Ev, symObjAddr: 0x98E0, symBinAddr: 0x10000B394, symSize: 0x28 }
  - { offsetInCU: 0x1C657, offset: 0x1C657, size: 0x8, addend: 0x0, symName: __ZNKSt3__122__unordered_map_hasherIiNS_17__hash_value_typeIiiEENS_4hashIiEENS_8equal_toIiEELb1EEclB7v160006ERKi, symObjAddr: 0x9908, symBinAddr: 0x10000B3BC, symSize: 0x30 }
  - { offsetInCU: 0x1C68C, offset: 0x1C68C, size: 0x8, addend: 0x0, symName: __ZNSt3__112__hash_tableINS_17__hash_value_typeIiiEENS_22__unordered_map_hasherIiS2_NS_4hashIiEENS_8equal_toIiEELb1EEENS_21__unordered_map_equalIiS2_S7_S5_Lb1EEENS_9allocatorIS2_EEE6key_eqB7v160006Ev, symObjAddr: 0x9938, symBinAddr: 0x10000B3EC, symSize: 0x28 }
  - { offsetInCU: 0x1C6B2, offset: 0x1C6B2, size: 0x8, addend: 0x0, symName: __ZNKSt3__121__unordered_map_equalIiNS_17__hash_value_typeIiiEENS_8equal_toIiEENS_4hashIiEELb1EEclB7v160006ERKS2_RKi, symObjAddr: 0x9960, symBinAddr: 0x10000B414, symSize: 0x48 }
  - { offsetInCU: 0x1C6F6, offset: 0x1C6F6, size: 0x8, addend: 0x0, symName: __ZNSt3__115__hash_iteratorIPNS_11__hash_nodeINS_17__hash_value_typeIiiEEPvEEEC1B7v160006EPNS_16__hash_node_baseIS6_EEPKv, symObjAddr: 0x99A8, symBinAddr: 0x10000B45C, symSize: 0x3C }
  - { offsetInCU: 0x1C73E, offset: 0x1C73E, size: 0x8, addend: 0x0, symName: __ZNSt3__112__hash_tableINS_17__hash_value_typeIiiEENS_22__unordered_map_hasherIiS2_NS_4hashIiEENS_8equal_toIiEELb1EEENS_21__unordered_map_equalIiS2_S7_S5_Lb1EEENS_9allocatorIS2_EEE3endEv, symObjAddr: 0x99E4, symBinAddr: 0x10000B498, symSize: 0x30 }
  - { offsetInCU: 0x1C766, offset: 0x1C766, size: 0x8, addend: 0x0, symName: __ZNSt3__117__compressed_pairImNS_22__unordered_map_hasherIiNS_17__hash_value_typeIiiEENS_4hashIiEENS_8equal_toIiEELb1EEEE6secondB7v160006Ev, symObjAddr: 0x9A14, symBinAddr: 0x10000B4C8, symSize: 0x24 }
  - { offsetInCU: 0x1C78C, offset: 0x1C78C, size: 0x8, addend: 0x0, symName: __ZNSt3__122__compressed_pair_elemINS_22__unordered_map_hasherIiNS_17__hash_value_typeIiiEENS_4hashIiEENS_8equal_toIiEELb1EEELi1ELb1EE5__getB7v160006Ev, symObjAddr: 0x9A38, symBinAddr: 0x10000B4EC, symSize: 0x14 }
  - { offsetInCU: 0x1C7B2, offset: 0x1C7B2, size: 0x8, addend: 0x0, symName: __ZNKSt3__14hashIiEclB7v160006Ei, symObjAddr: 0x9A4C, symBinAddr: 0x10000B500, symSize: 0x18 }
  - { offsetInCU: 0x1C7E7, offset: 0x1C7E7, size: 0x8, addend: 0x0, symName: __ZNSt3__117__compressed_pairIfNS_21__unordered_map_equalIiNS_17__hash_value_typeIiiEENS_8equal_toIiEENS_4hashIiEELb1EEEE6secondB7v160006Ev, symObjAddr: 0x9A64, symBinAddr: 0x10000B518, symSize: 0x24 }
  - { offsetInCU: 0x1C80D, offset: 0x1C80D, size: 0x8, addend: 0x0, symName: __ZNSt3__122__compressed_pair_elemINS_21__unordered_map_equalIiNS_17__hash_value_typeIiiEENS_8equal_toIiEENS_4hashIiEELb1EEELi1ELb1EE5__getB7v160006Ev, symObjAddr: 0x9A88, symBinAddr: 0x10000B53C, symSize: 0x14 }
  - { offsetInCU: 0x1C833, offset: 0x1C833, size: 0x8, addend: 0x0, symName: __ZNKSt3__18equal_toIiEclB7v160006ERKiS3_, symObjAddr: 0x9A9C, symBinAddr: 0x10000B550, symSize: 0x34 }
  - { offsetInCU: 0x1C877, offset: 0x1C877, size: 0x8, addend: 0x0, symName: __ZNKSt3__117__hash_value_typeIiiE11__get_valueB7v160006Ev, symObjAddr: 0x9AD0, symBinAddr: 0x10000B584, symSize: 0x14 }
  - { offsetInCU: 0x1C89D, offset: 0x1C89D, size: 0x8, addend: 0x0, symName: __ZNSt3__115__hash_iteratorIPNS_11__hash_nodeINS_17__hash_value_typeIiiEEPvEEEC2B7v160006EPNS_16__hash_node_baseIS6_EEPKv, symObjAddr: 0x9AE4, symBinAddr: 0x10000B598, symSize: 0x24 }
  - { offsetInCU: 0x1C8E5, offset: 0x1C8E5, size: 0x8, addend: 0x0, symName: __ZNSt3__119__hash_map_iteratorINS_15__hash_iteratorIPNS_11__hash_nodeINS_17__hash_value_typeIiiEEPvEEEEEC2B7v160006ES8_, symObjAddr: 0x9B08, symBinAddr: 0x10000B5BC, symSize: 0x20 }
  - { offsetInCU: 0x1C91E, offset: 0x1C91E, size: 0x8, addend: 0x0, symName: __ZNSt3__114pointer_traitsIPNS_4pairIKiiEEE10pointer_toB7v160006ERS3_, symObjAddr: 0x9B8C, symBinAddr: 0x10000B640, symSize: 0x14 }
  - { offsetInCU: 0x1C941, offset: 0x1C941, size: 0x8, addend: 0x0, symName: __ZNKSt3__115__hash_iteratorIPNS_11__hash_nodeINS_17__hash_value_typeIiiEEPvEEEptB7v160006Ev, symObjAddr: 0x9BA0, symBinAddr: 0x10000B654, symSize: 0x30 }
  - { offsetInCU: 0x1C967, offset: 0x1C967, size: 0x8, addend: 0x0, symName: __ZNSt3__114pointer_traitsIPNS_17__hash_value_typeIiiEEE10pointer_toB7v160006ERS2_, symObjAddr: 0x9BD0, symBinAddr: 0x10000B684, symSize: 0x14 }
  - { offsetInCU: 0x1C98A, offset: 0x1C98A, size: 0x8, addend: 0x0, symName: __ZNSt3__116allocator_traitsINS_9allocatorINS_11__hash_nodeINS_17__hash_value_typeIiiEEPvEEEEE8allocateB7v160006ERS7_m, symObjAddr: 0x9BE4, symBinAddr: 0x10000B698, symSize: 0x2C }
  - { offsetInCU: 0x1C9BD, offset: 0x1C9BD, size: 0x8, addend: 0x0, symName: __ZNSt3__126__hash_map_node_destructorINS_9allocatorINS_11__hash_nodeINS_17__hash_value_typeIiiEEPvEEEEEC1B7v160006ERS7_, symObjAddr: 0x9C10, symBinAddr: 0x10000B6C4, symSize: 0x34 }
  - { offsetInCU: 0x1C9FC, offset: 0x1C9FC, size: 0x8, addend: 0x0, symName: __ZNSt3__110unique_ptrINS_11__hash_nodeINS_17__hash_value_typeIiiEEPvEENS_26__hash_map_node_destructorINS_9allocatorIS5_EEEEEC1B7v160006ILb1EvEEPS5_NS_16__dependent_typeINS_27__unique_ptr_deleter_sfinaeIS9_EEXT_EE20__good_rval_ref_typeE, symObjAddr: 0x9C44, symBinAddr: 0x10000B6F8, symSize: 0x3C }
  - { offsetInCU: 0x1CA52, offset: 0x1CA52, size: 0x8, addend: 0x0, symName: __ZNSt3__116allocator_traitsINS_9allocatorINS_11__hash_nodeINS_17__hash_value_typeIiiEEPvEEEEE9constructB7v160006IKiJRSA_EvEEvRS7_PT_DpOT0_, symObjAddr: 0x9C80, symBinAddr: 0x10000B734, symSize: 0x34 }
  - { offsetInCU: 0x1CAA9, offset: 0x1CAA9, size: 0x8, addend: 0x0, symName: __ZNKSt3__110unique_ptrINS_11__hash_nodeINS_17__hash_value_typeIiiEEPvEENS_26__hash_map_node_destructorINS_9allocatorIS5_EEEEEptB7v160006Ev, symObjAddr: 0x9CB4, symBinAddr: 0x10000B768, symSize: 0x28 }
  - { offsetInCU: 0x1CACF, offset: 0x1CACF, size: 0x8, addend: 0x0, symName: __ZNSt3__110unique_ptrINS_11__hash_nodeINS_17__hash_value_typeIiiEEPvEENS_26__hash_map_node_destructorINS_9allocatorIS5_EEEEE11get_deleterB7v160006Ev, symObjAddr: 0x9CDC, symBinAddr: 0x10000B790, symSize: 0x24 }
  - { offsetInCU: 0x1CAF5, offset: 0x1CAF5, size: 0x8, addend: 0x0, symName: __ZNSt3__116allocator_traitsINS_9allocatorINS_11__hash_nodeINS_17__hash_value_typeIiiEEPvEEEEE9constructB7v160006IiJEvEEvRS7_PT_DpOT0_, symObjAddr: 0x9D00, symBinAddr: 0x10000B7B4, symSize: 0x2C }
  - { offsetInCU: 0x1CB37, offset: 0x1CB37, size: 0x8, addend: 0x0, symName: __ZNSt3__19allocatorINS_11__hash_nodeINS_17__hash_value_typeIiiEEPvEEE8allocateB7v160006Em, symObjAddr: 0x9D2C, symBinAddr: 0x10000B7E0, symSize: 0x8C }
  - { offsetInCU: 0x1CB75, offset: 0x1CB75, size: 0x8, addend: 0x0, symName: __ZNSt3__116allocator_traitsINS_9allocatorINS_11__hash_nodeINS_17__hash_value_typeIiiEEPvEEEEE8max_sizeB7v160006IS7_vEEmRKS7_, symObjAddr: 0x9DB8, symBinAddr: 0x10000B86C, symSize: 0x24 }
  - { offsetInCU: 0x1CBA3, offset: 0x1CBA3, size: 0x8, addend: 0x0, symName: __ZNKSt3__19allocatorINS_11__hash_nodeINS_17__hash_value_typeIiiEEPvEEE8max_sizeB7v160006Ev, symObjAddr: 0x9DDC, symBinAddr: 0x10000B890, symSize: 0x18 }
  - { offsetInCU: 0x1CBC9, offset: 0x1CBC9, size: 0x8, addend: 0x0, symName: __ZNSt3__126__hash_map_node_destructorINS_9allocatorINS_11__hash_nodeINS_17__hash_value_typeIiiEEPvEEEEEC2B7v160006ERS7_, symObjAddr: 0x9DF4, symBinAddr: 0x10000B8A8, symSize: 0x28 }
  - { offsetInCU: 0x1CC02, offset: 0x1CC02, size: 0x8, addend: 0x0, symName: __ZNSt3__110unique_ptrINS_11__hash_nodeINS_17__hash_value_typeIiiEEPvEENS_26__hash_map_node_destructorINS_9allocatorIS5_EEEEEC2B7v160006ILb1EvEEPS5_NS_16__dependent_typeINS_27__unique_ptr_deleter_sfinaeIS9_EEXT_EE20__good_rval_ref_typeE, symObjAddr: 0x9E1C, symBinAddr: 0x10000B8D0, symSize: 0x5C }
  - { offsetInCU: 0x1CC53, offset: 0x1CC53, size: 0x8, addend: 0x0, symName: __ZNSt3__117__compressed_pairIPNS_11__hash_nodeINS_17__hash_value_typeIiiEEPvEENS_26__hash_map_node_destructorINS_9allocatorIS5_EEEEEC1B7v160006IRS6_SA_EEOT_OT0_, symObjAddr: 0x9E78, symBinAddr: 0x10000B92C, symSize: 0x3C }
  - { offsetInCU: 0x1CCAB, offset: 0x1CCAB, size: 0x8, addend: 0x0, symName: __ZNSt3__117__compressed_pairIPNS_11__hash_nodeINS_17__hash_value_typeIiiEEPvEENS_26__hash_map_node_destructorINS_9allocatorIS5_EEEEEC2B7v160006IRS6_SA_EEOT_OT0_, symObjAddr: 0x9EB4, symBinAddr: 0x10000B968, symSize: 0x48 }
  - { offsetInCU: 0x1CD03, offset: 0x1CD03, size: 0x8, addend: 0x0, symName: __ZNSt3__122__compressed_pair_elemIPNS_11__hash_nodeINS_17__hash_value_typeIiiEEPvEELi0ELb0EEC2B7v160006IRS6_vEEOT_, symObjAddr: 0x9EFC, symBinAddr: 0x10000B9B0, symSize: 0x24 }
  - { offsetInCU: 0x1CD45, offset: 0x1CD45, size: 0x8, addend: 0x0, symName: __ZNSt3__122__compressed_pair_elemINS_26__hash_map_node_destructorINS_9allocatorINS_11__hash_nodeINS_17__hash_value_typeIiiEEPvEEEEEELi1ELb0EEC2B7v160006IS9_vEEOT_, symObjAddr: 0x9F20, symBinAddr: 0x10000B9D4, symSize: 0x24 }
  - { offsetInCU: 0x1CD87, offset: 0x1CD87, size: 0x8, addend: 0x0, symName: __ZNSt3__19allocatorINS_11__hash_nodeINS_17__hash_value_typeIiiEEPvEEE9constructB7v160006IKiJRS8_EEEvPT_DpOT0_, symObjAddr: 0x9F44, symBinAddr: 0x10000B9F8, symSize: 0x28 }
  - { offsetInCU: 0x1CDDD, offset: 0x1CDDD, size: 0x8, addend: 0x0, symName: __ZNKSt3__117__compressed_pairIPNS_11__hash_nodeINS_17__hash_value_typeIiiEEPvEENS_26__hash_map_node_destructorINS_9allocatorIS5_EEEEE5firstB7v160006Ev, symObjAddr: 0x9F6C, symBinAddr: 0x10000BA20, symSize: 0x24 }
  - { offsetInCU: 0x1CE03, offset: 0x1CE03, size: 0x8, addend: 0x0, symName: __ZNKSt3__122__compressed_pair_elemIPNS_11__hash_nodeINS_17__hash_value_typeIiiEEPvEELi0ELb0EE5__getB7v160006Ev, symObjAddr: 0x9F90, symBinAddr: 0x10000BA44, symSize: 0x14 }
  - { offsetInCU: 0x1CE29, offset: 0x1CE29, size: 0x8, addend: 0x0, symName: __ZNSt3__117__compressed_pairIPNS_11__hash_nodeINS_17__hash_value_typeIiiEEPvEENS_26__hash_map_node_destructorINS_9allocatorIS5_EEEEE6secondB7v160006Ev, symObjAddr: 0x9FA4, symBinAddr: 0x10000BA58, symSize: 0x28 }
  - { offsetInCU: 0x1CE4F, offset: 0x1CE4F, size: 0x8, addend: 0x0, symName: __ZNSt3__122__compressed_pair_elemINS_26__hash_map_node_destructorINS_9allocatorINS_11__hash_nodeINS_17__hash_value_typeIiiEEPvEEEEEELi1ELb0EE5__getB7v160006Ev, symObjAddr: 0x9FCC, symBinAddr: 0x10000BA80, symSize: 0x14 }
  - { offsetInCU: 0x1CE75, offset: 0x1CE75, size: 0x8, addend: 0x0, symName: __ZNSt3__19allocatorINS_11__hash_nodeINS_17__hash_value_typeIiiEEPvEEE9constructB7v160006IiJEEEvPT_DpOT0_, symObjAddr: 0x9FE0, symBinAddr: 0x10000BA94, symSize: 0x1C }
  - { offsetInCU: 0x1CEB7, offset: 0x1CEB7, size: 0x8, addend: 0x0, symName: __ZNKSt3__122__unordered_map_hasherIiNS_17__hash_value_typeIiiEENS_4hashIiEENS_8equal_toIiEELb1EEclB7v160006ERKS2_, symObjAddr: 0x9FFC, symBinAddr: 0x10000BAB0, symSize: 0x40 }
  - { offsetInCU: 0x1CEEC, offset: 0x1CEEC, size: 0x8, addend: 0x0, symName: __ZNSt3__112__hash_tableINS_17__hash_value_typeIiiEENS_22__unordered_map_hasherIiS2_NS_4hashIiEENS_8equal_toIiEELb1EEENS_21__unordered_map_equalIiS2_S7_S5_Lb1EEENS_9allocatorIS2_EEE28__node_insert_unique_prepareB7v160006EmRS2_, symObjAddr: 0xA03C, symBinAddr: 0x10000BAF0, symSize: 0x244 }
  - { offsetInCU: 0x1CF6E, offset: 0x1CF6E, size: 0x8, addend: 0x0, symName: __ZNSt3__112__hash_tableINS_17__hash_value_typeIiiEENS_22__unordered_map_hasherIiS2_NS_4hashIiEENS_8equal_toIiEELb1EEENS_21__unordered_map_equalIiS2_S7_S5_Lb1EEENS_9allocatorIS2_EEE28__node_insert_unique_performB7v160006EPNS_11__hash_nodeIS2_PvEE, symObjAddr: 0xA280, symBinAddr: 0x10000BD34, symSize: 0x154 }
  - { offsetInCU: 0x1CFD2, offset: 0x1CFD2, size: 0x8, addend: 0x0, symName: __ZNSt3__14pairINS_15__hash_iteratorIPNS_11__hash_nodeINS_17__hash_value_typeIiiEEPvEEEEbEC1B7v160006ERKS8_RKb, symObjAddr: 0xA3D4, symBinAddr: 0x10000BE88, symSize: 0x3C }
  - { offsetInCU: 0x1D018, offset: 0x1D018, size: 0x8, addend: 0x0, symName: __ZNKSt3__121__unordered_map_equalIiNS_17__hash_value_typeIiiEENS_8equal_toIiEENS_4hashIiEELb1EEclB7v160006ERKS2_S9_, symObjAddr: 0xA410, symBinAddr: 0x10000BEC4, symSize: 0x54 }
  - { offsetInCU: 0x1D05C, offset: 0x1D05C, size: 0x8, addend: 0x0, symName: __ZNSt3__14pairINS_15__hash_iteratorIPNS_11__hash_nodeINS_17__hash_value_typeIiiEEPvEEEEbEC2B7v160006ERKS8_RKb, symObjAddr: 0xA464, symBinAddr: 0x10000BF18, symSize: 0x38 }
  - { offsetInCU: 0x1D0A2, offset: 0x1D0A2, size: 0x8, addend: 0x0, symName: __ZNSt3__14pairINS_19__hash_map_iteratorINS_15__hash_iteratorIPNS_11__hash_nodeINS_17__hash_value_typeIiiEEPvEEEEEEbEC2B7v160006IS9_bEERKNS0_IT_T0_EE, symObjAddr: 0xA49C, symBinAddr: 0x10000BF50, symSize: 0x50 }
  - { offsetInCU: 0x1D0EC, offset: 0x1D0EC, size: 0x8, addend: 0x0, symName: __ZNSt3__117__compressed_pairIPNS_11__hash_nodeINS_17__hash_value_typeIiiEEPvEENS_26__hash_map_node_destructorINS_9allocatorIS5_EEEEE5firstB7v160006Ev, symObjAddr: 0xA4EC, symBinAddr: 0x10000BFA0, symSize: 0x24 }
  - { offsetInCU: 0x1D112, offset: 0x1D112, size: 0x8, addend: 0x0, symName: __ZNSt3__122__compressed_pair_elemIPNS_11__hash_nodeINS_17__hash_value_typeIiiEEPvEELi0ELb0EE5__getB7v160006Ev, symObjAddr: 0xA510, symBinAddr: 0x10000BFC4, symSize: 0x14 }
  - { offsetInCU: 0x1D138, offset: 0x1D138, size: 0x8, addend: 0x0, symName: __ZNSt3__110unique_ptrINS_11__hash_nodeINS_17__hash_value_typeIiiEEPvEENS_26__hash_map_node_destructorINS_9allocatorIS5_EEEEED2B7v160006Ev, symObjAddr: 0xA524, symBinAddr: 0x10000BFD8, symSize: 0x30 }
  - { offsetInCU: 0x1D162, offset: 0x1D162, size: 0x8, addend: 0x0, symName: __ZNSt3__110unique_ptrINS_11__hash_nodeINS_17__hash_value_typeIiiEEPvEENS_26__hash_map_node_destructorINS_9allocatorIS5_EEEEE5resetB7v160006EPS5_, symObjAddr: 0xA554, symBinAddr: 0x10000C008, symSize: 0x78 }
  - { offsetInCU: 0x1D1A6, offset: 0x1D1A6, size: 0x8, addend: 0x0, symName: __ZNSt3__126__hash_map_node_destructorINS_9allocatorINS_11__hash_nodeINS_17__hash_value_typeIiiEEPvEEEEEclB7v160006EPS6_, symObjAddr: 0xA5CC, symBinAddr: 0x10000C080, symSize: 0xE4 }
  - { offsetInCU: 0x1D1DB, offset: 0x1D1DB, size: 0x8, addend: 0x0, symName: __ZNSt3__116allocator_traitsINS_9allocatorINS_11__hash_nodeINS_17__hash_value_typeIiiEEPvEEEEE7destroyB7v160006IivvEEvRS7_PT_, symObjAddr: 0xA6B0, symBinAddr: 0x10000C164, symSize: 0x14 }
  - { offsetInCU: 0x1D215, offset: 0x1D215, size: 0x8, addend: 0x0, symName: __ZNSt3__116allocator_traitsINS_9allocatorINS_11__hash_nodeINS_17__hash_value_typeIiiEEPvEEEEE7destroyB7v160006IKivvEEvRS7_PT_, symObjAddr: 0xA6C4, symBinAddr: 0x10000C178, symSize: 0x14 }
  - { offsetInCU: 0x1D24F, offset: 0x1D24F, size: 0x8, addend: 0x0, symName: __ZNSt3__112__hash_tableINS_17__hash_value_typeIiiEENS_22__unordered_map_hasherIiS2_NS_4hashIiEENS_8equal_toIiEELb1EEENS_21__unordered_map_equalIiS2_S7_S5_Lb1EEENS_9allocatorIS2_EEE14__erase_uniqueIiEEmRKT_, symObjAddr: 0xA6D8, symBinAddr: 0x10000C18C, symSize: 0x98 }
  - { offsetInCU: 0x1D29E, offset: 0x1D29E, size: 0x8, addend: 0x0, symName: __ZNSt3__112__hash_tableINS_17__hash_value_typeIiiEENS_22__unordered_map_hasherIiS2_NS_4hashIiEENS_8equal_toIiEELb1EEENS_21__unordered_map_equalIiS2_S7_S5_Lb1EEENS_9allocatorIS2_EEE5eraseENS_21__hash_const_iteratorIPNS_11__hash_nodeIS2_PvEEEE, symObjAddr: 0xA770, symBinAddr: 0x10000C224, symSize: 0x70 }
  - { offsetInCU: 0x1D2F3, offset: 0x1D2F3, size: 0x8, addend: 0x0, symName: __ZNSt3__121__hash_const_iteratorIPNS_11__hash_nodeINS_17__hash_value_typeIiiEEPvEEEC1B7v160006ERKNS_15__hash_iteratorIS6_EE, symObjAddr: 0xA7E0, symBinAddr: 0x10000C294, symSize: 0x34 }
  - { offsetInCU: 0x1D32C, offset: 0x1D32C, size: 0x8, addend: 0x0, symName: __ZNSt3__115__hash_iteratorIPNS_11__hash_nodeINS_17__hash_value_typeIiiEEPvEEEppB7v160006Ev, symObjAddr: 0xA814, symBinAddr: 0x10000C2C8, symSize: 0x20 }
  - { offsetInCU: 0x1D352, offset: 0x1D352, size: 0x8, addend: 0x0, symName: __ZNSt3__112__hash_tableINS_17__hash_value_typeIiiEENS_22__unordered_map_hasherIiS2_NS_4hashIiEENS_8equal_toIiEELb1EEENS_21__unordered_map_equalIiS2_S7_S5_Lb1EEENS_9allocatorIS2_EEE6removeENS_21__hash_const_iteratorIPNS_11__hash_nodeIS2_PvEEEE, symObjAddr: 0xA834, symBinAddr: 0x10000C2E8, symSize: 0x220 }
  - { offsetInCU: 0x1D3E4, offset: 0x1D3E4, size: 0x8, addend: 0x0, symName: __ZNSt3__110unique_ptrINS_11__hash_nodeINS_17__hash_value_typeIiiEEPvEENS_22__hash_node_destructorINS_9allocatorIS5_EEEEED1B7v160006Ev, symObjAddr: 0xAA54, symBinAddr: 0x10000C508, symSize: 0x2C }
  - { offsetInCU: 0x1D40E, offset: 0x1D40E, size: 0x8, addend: 0x0, symName: __ZNSt3__122__hash_node_destructorINS_9allocatorINS_11__hash_nodeINS_17__hash_value_typeIiiEEPvEEEEEC1B7v160006ERS7_b, symObjAddr: 0xAA80, symBinAddr: 0x10000C534, symSize: 0x48 }
  - { offsetInCU: 0x1D45C, offset: 0x1D45C, size: 0x8, addend: 0x0, symName: __ZNSt3__110unique_ptrINS_11__hash_nodeINS_17__hash_value_typeIiiEEPvEENS_22__hash_node_destructorINS_9allocatorIS5_EEEEEC1B7v160006ILb1EvEEPS5_NS_16__dependent_typeINS_27__unique_ptr_deleter_sfinaeIS9_EEXT_EE20__good_rval_ref_typeE, symObjAddr: 0xAAC8, symBinAddr: 0x10000C57C, symSize: 0x3C }
  - { offsetInCU: 0x1D4AD, offset: 0x1D4AD, size: 0x8, addend: 0x0, symName: __ZNSt3__122__hash_node_destructorINS_9allocatorINS_11__hash_nodeINS_17__hash_value_typeIiiEEPvEEEEEC2B7v160006ERS7_b, symObjAddr: 0xAB04, symBinAddr: 0x10000C5B8, symSize: 0x38 }
  - { offsetInCU: 0x1D4F5, offset: 0x1D4F5, size: 0x8, addend: 0x0, symName: __ZNSt3__110unique_ptrINS_11__hash_nodeINS_17__hash_value_typeIiiEEPvEENS_22__hash_node_destructorINS_9allocatorIS5_EEEEEC2B7v160006ILb1EvEEPS5_NS_16__dependent_typeINS_27__unique_ptr_deleter_sfinaeIS9_EEXT_EE20__good_rval_ref_typeE, symObjAddr: 0xAB3C, symBinAddr: 0x10000C5F0, symSize: 0x5C }
  - { offsetInCU: 0x1D546, offset: 0x1D546, size: 0x8, addend: 0x0, symName: __ZNSt3__117__compressed_pairIPNS_11__hash_nodeINS_17__hash_value_typeIiiEEPvEENS_22__hash_node_destructorINS_9allocatorIS5_EEEEEC1B7v160006IRS6_SA_EEOT_OT0_, symObjAddr: 0xAB98, symBinAddr: 0x10000C64C, symSize: 0x3C }
  - { offsetInCU: 0x1D59E, offset: 0x1D59E, size: 0x8, addend: 0x0, symName: __ZNSt3__117__compressed_pairIPNS_11__hash_nodeINS_17__hash_value_typeIiiEEPvEENS_22__hash_node_destructorINS_9allocatorIS5_EEEEEC2B7v160006IRS6_SA_EEOT_OT0_, symObjAddr: 0xABD4, symBinAddr: 0x10000C688, symSize: 0x48 }
  - { offsetInCU: 0x1D5F6, offset: 0x1D5F6, size: 0x8, addend: 0x0, symName: __ZNSt3__122__compressed_pair_elemINS_22__hash_node_destructorINS_9allocatorINS_11__hash_nodeINS_17__hash_value_typeIiiEEPvEEEEEELi1ELb0EEC2B7v160006IS9_vEEOT_, symObjAddr: 0xAC1C, symBinAddr: 0x10000C6D0, symSize: 0x24 }
  - { offsetInCU: 0x1D638, offset: 0x1D638, size: 0x8, addend: 0x0, symName: __ZNSt3__110unique_ptrINS_11__hash_nodeINS_17__hash_value_typeIiiEEPvEENS_22__hash_node_destructorINS_9allocatorIS5_EEEEED2B7v160006Ev, symObjAddr: 0xAC40, symBinAddr: 0x10000C6F4, symSize: 0x30 }
  - { offsetInCU: 0x1D662, offset: 0x1D662, size: 0x8, addend: 0x0, symName: __ZNSt3__110unique_ptrINS_11__hash_nodeINS_17__hash_value_typeIiiEEPvEENS_22__hash_node_destructorINS_9allocatorIS5_EEEEE5resetB7v160006EPS5_, symObjAddr: 0xAC70, symBinAddr: 0x10000C724, symSize: 0x78 }
  - { offsetInCU: 0x1D6A6, offset: 0x1D6A6, size: 0x8, addend: 0x0, symName: __ZNSt3__117__compressed_pairIPNS_11__hash_nodeINS_17__hash_value_typeIiiEEPvEENS_22__hash_node_destructorINS_9allocatorIS5_EEEEE5firstB7v160006Ev, symObjAddr: 0xACE8, symBinAddr: 0x10000C79C, symSize: 0x24 }
  - { offsetInCU: 0x1D6CC, offset: 0x1D6CC, size: 0x8, addend: 0x0, symName: __ZNSt3__117__compressed_pairIPNS_11__hash_nodeINS_17__hash_value_typeIiiEEPvEENS_22__hash_node_destructorINS_9allocatorIS5_EEEEE6secondB7v160006Ev, symObjAddr: 0xAD0C, symBinAddr: 0x10000C7C0, symSize: 0x28 }
  - { offsetInCU: 0x1D6F2, offset: 0x1D6F2, size: 0x8, addend: 0x0, symName: __ZNSt3__122__hash_node_destructorINS_9allocatorINS_11__hash_nodeINS_17__hash_value_typeIiiEEPvEEEEEclB7v160006EPS6_, symObjAddr: 0xAD34, symBinAddr: 0x10000C7E8, symSize: 0xA8 }
  - { offsetInCU: 0x1D727, offset: 0x1D727, size: 0x8, addend: 0x0, symName: __ZNSt3__122__compressed_pair_elemINS_22__hash_node_destructorINS_9allocatorINS_11__hash_nodeINS_17__hash_value_typeIiiEEPvEEEEEELi1ELb0EE5__getB7v160006Ev, symObjAddr: 0xADDC, symBinAddr: 0x10000C890, symSize: 0x14 }
  - { offsetInCU: 0x1D74D, offset: 0x1D74D, size: 0x8, addend: 0x0, symName: __ZNSt3__121__hash_const_iteratorIPNS_11__hash_nodeINS_17__hash_value_typeIiiEEPvEEEC2B7v160006ERKNS_15__hash_iteratorIS6_EE, symObjAddr: 0xADF0, symBinAddr: 0x10000C8A4, symSize: 0x24 }
  - { offsetInCU: 0x1D786, offset: 0x1D786, size: 0x8, addend: 0x0, symName: __ZN10OrderIndex5IndexC2Ei, symObjAddr: 0xAE14, symBinAddr: 0x10000C8C8, symSize: 0x4C }
  - { offsetInCU: 0x1D82A, offset: 0x1D82A, size: 0x8, addend: 0x0, symName: __ZN10NumberUtil22getBookPriceLevelIndexEi, symObjAddr: 0xAE60, symBinAddr: 0x10000C914, symSize: 0x1C }
  - { offsetInCU: 0x1D84D, offset: 0x1D84D, size: 0x8, addend: 0x0, symName: __ZN10NumberUtil23getPriceLevelOrderIndexEi, symObjAddr: 0xAE7C, symBinAddr: 0x10000C930, symSize: 0x18 }
  - { offsetInCU: 0x1D870, offset: 0x1D870, size: 0x8, addend: 0x0, symName: __ZNK5Order8getPriceEv, symObjAddr: 0xAE94, symBinAddr: 0x10000C948, symSize: 0x18 }
  - { offsetInCU: 0x1D896, offset: 0x1D896, size: 0x8, addend: 0x0, symName: __ZNSt3__113unordered_mapIdiNS_4hashIdEENS_8equal_toIdEENS_9allocatorINS_4pairIKdiEEEEE4findB7v160006ERS7_, symObjAddr: 0xAEDC, symBinAddr: 0x10000C990, symSize: 0x40 }
  - { offsetInCU: 0x1D8CB, offset: 0x1D8CB, size: 0x8, addend: 0x0, symName: __ZNSt3__113unordered_mapIdiNS_4hashIdEENS_8equal_toIdEENS_9allocatorINS_4pairIKdiEEEEE3endB7v160006Ev, symObjAddr: 0xAF1C, symBinAddr: 0x10000C9D0, symSize: 0x38 }
  - { offsetInCU: 0x1D8F1, offset: 0x1D8F1, size: 0x8, addend: 0x0, symName: __ZNSt3__113unordered_mapIdiNS_4hashIdEENS_8equal_toIdEENS_9allocatorINS_4pairIKdiEEEEEixERS7_, symObjAddr: 0xAF54, symBinAddr: 0x10000CA08, symSize: 0x128 }
  - { offsetInCU: 0x1D956, offset: 0x1D956, size: 0x8, addend: 0x0, symName: __ZN9OrderBook8newOrderEiRK5Orderi, symObjAddr: 0xB07C, symBinAddr: 0x10000CB30, symSize: 0x78 }
  - { offsetInCU: 0x1D9C2, offset: 0x1D9C2, size: 0x8, addend: 0x0, symName: __ZNSt3__113unordered_mapIdiNS_4hashIdEENS_8equal_toIdEENS_9allocatorINS_4pairIKdiEEEEE25__construct_node_with_keyERS7_, symObjAddr: 0xB128, symBinAddr: 0x10000CBDC, symSize: 0x144 }
  - { offsetInCU: 0x1DA18, offset: 0x1DA18, size: 0x8, addend: 0x0, symName: __ZNSt3__112__hash_tableINS_17__hash_value_typeIdiEENS_22__unordered_map_hasherIdS2_NS_4hashIdEENS_8equal_toIdEELb1EEENS_21__unordered_map_equalIdS2_S7_S5_Lb1EEENS_9allocatorIS2_EEE20__node_insert_uniqueEPNS_11__hash_nodeIS2_PvEE, symObjAddr: 0xB26C, symBinAddr: 0x10000CD20, symSize: 0xC8 }
  - { offsetInCU: 0x1DA6D, offset: 0x1DA6D, size: 0x8, addend: 0x0, symName: __ZNKSt3__110unique_ptrINS_11__hash_nodeINS_17__hash_value_typeIdiEEPvEENS_26__hash_map_node_destructorINS_9allocatorIS5_EEEEE3getB7v160006Ev, symObjAddr: 0xB334, symBinAddr: 0x10000CDE8, symSize: 0x28 }
  - { offsetInCU: 0x1DA93, offset: 0x1DA93, size: 0x8, addend: 0x0, symName: __ZNSt3__14pairINS_19__hash_map_iteratorINS_15__hash_iteratorIPNS_11__hash_nodeINS_17__hash_value_typeIdiEEPvEEEEEEbEC1B7v160006IS9_bEERKNS0_IT_T0_EE, symObjAddr: 0xB35C, symBinAddr: 0x10000CE10, symSize: 0x34 }
  - { offsetInCU: 0x1DADD, offset: 0x1DADD, size: 0x8, addend: 0x0, symName: __ZNSt3__110unique_ptrINS_11__hash_nodeINS_17__hash_value_typeIdiEEPvEENS_26__hash_map_node_destructorINS_9allocatorIS5_EEEEE7releaseB7v160006Ev, symObjAddr: 0xB390, symBinAddr: 0x10000CE44, symSize: 0x44 }
  - { offsetInCU: 0x1DB12, offset: 0x1DB12, size: 0x8, addend: 0x0, symName: __ZNSt3__110unique_ptrINS_11__hash_nodeINS_17__hash_value_typeIdiEEPvEENS_26__hash_map_node_destructorINS_9allocatorIS5_EEEEED1B7v160006Ev, symObjAddr: 0xB3D4, symBinAddr: 0x10000CE88, symSize: 0x2C }
  - { offsetInCU: 0x1DB3C, offset: 0x1DB3C, size: 0x8, addend: 0x0, symName: __ZNSt3__116allocator_traitsINS_9allocatorINS_11__hash_nodeINS_17__hash_value_typeIdiEEPvEEEEE8allocateB7v160006ERS7_m, symObjAddr: 0xB400, symBinAddr: 0x10000CEB4, symSize: 0x2C }
  - { offsetInCU: 0x1DB6F, offset: 0x1DB6F, size: 0x8, addend: 0x0, symName: __ZNSt3__126__hash_map_node_destructorINS_9allocatorINS_11__hash_nodeINS_17__hash_value_typeIdiEEPvEEEEEC1B7v160006ERS7_, symObjAddr: 0xB42C, symBinAddr: 0x10000CEE0, symSize: 0x34 }
  - { offsetInCU: 0x1DBAE, offset: 0x1DBAE, size: 0x8, addend: 0x0, symName: __ZNSt3__110unique_ptrINS_11__hash_nodeINS_17__hash_value_typeIdiEEPvEENS_26__hash_map_node_destructorINS_9allocatorIS5_EEEEEC1B7v160006ILb1EvEEPS5_NS_16__dependent_typeINS_27__unique_ptr_deleter_sfinaeIS9_EEXT_EE20__good_rval_ref_typeE, symObjAddr: 0xB460, symBinAddr: 0x10000CF14, symSize: 0x3C }
  - { offsetInCU: 0x1DC04, offset: 0x1DC04, size: 0x8, addend: 0x0, symName: __ZNSt3__116allocator_traitsINS_9allocatorINS_11__hash_nodeINS_17__hash_value_typeIdiEEPvEEEEE9constructB7v160006IKdJRSA_EvEEvRS7_PT_DpOT0_, symObjAddr: 0xB49C, symBinAddr: 0x10000CF50, symSize: 0x34 }
  - { offsetInCU: 0x1DC5B, offset: 0x1DC5B, size: 0x8, addend: 0x0, symName: __ZNKSt3__110unique_ptrINS_11__hash_nodeINS_17__hash_value_typeIdiEEPvEENS_26__hash_map_node_destructorINS_9allocatorIS5_EEEEEptB7v160006Ev, symObjAddr: 0xB4D0, symBinAddr: 0x10000CF84, symSize: 0x28 }
  - { offsetInCU: 0x1DC81, offset: 0x1DC81, size: 0x8, addend: 0x0, symName: __ZNSt3__110unique_ptrINS_11__hash_nodeINS_17__hash_value_typeIdiEEPvEENS_26__hash_map_node_destructorINS_9allocatorIS5_EEEEE11get_deleterB7v160006Ev, symObjAddr: 0xB4F8, symBinAddr: 0x10000CFAC, symSize: 0x24 }
  - { offsetInCU: 0x1DCA7, offset: 0x1DCA7, size: 0x8, addend: 0x0, symName: __ZNSt3__116allocator_traitsINS_9allocatorINS_11__hash_nodeINS_17__hash_value_typeIdiEEPvEEEEE9constructB7v160006IiJEvEEvRS7_PT_DpOT0_, symObjAddr: 0xB51C, symBinAddr: 0x10000CFD0, symSize: 0x2C }
  - { offsetInCU: 0x1DCE9, offset: 0x1DCE9, size: 0x8, addend: 0x0, symName: __ZNSt3__19allocatorINS_11__hash_nodeINS_17__hash_value_typeIdiEEPvEEE8allocateB7v160006Em, symObjAddr: 0xB548, symBinAddr: 0x10000CFFC, symSize: 0x84 }
  - { offsetInCU: 0x1DD27, offset: 0x1DD27, size: 0x8, addend: 0x0, symName: __ZNSt3__116allocator_traitsINS_9allocatorINS_11__hash_nodeINS_17__hash_value_typeIdiEEPvEEEEE8max_sizeB7v160006IS7_vEEmRKS7_, symObjAddr: 0xB5CC, symBinAddr: 0x10000D080, symSize: 0x24 }
  - { offsetInCU: 0x1DD55, offset: 0x1DD55, size: 0x8, addend: 0x0, symName: __ZNKSt3__19allocatorINS_11__hash_nodeINS_17__hash_value_typeIdiEEPvEEE8max_sizeB7v160006Ev, symObjAddr: 0xB5F0, symBinAddr: 0x10000D0A4, symSize: 0x14 }
  - { offsetInCU: 0x1DD7B, offset: 0x1DD7B, size: 0x8, addend: 0x0, symName: __ZNSt3__126__hash_map_node_destructorINS_9allocatorINS_11__hash_nodeINS_17__hash_value_typeIdiEEPvEEEEEC2B7v160006ERS7_, symObjAddr: 0xB604, symBinAddr: 0x10000D0B8, symSize: 0x28 }
  - { offsetInCU: 0x1DDB4, offset: 0x1DDB4, size: 0x8, addend: 0x0, symName: __ZNSt3__110unique_ptrINS_11__hash_nodeINS_17__hash_value_typeIdiEEPvEENS_26__hash_map_node_destructorINS_9allocatorIS5_EEEEEC2B7v160006ILb1EvEEPS5_NS_16__dependent_typeINS_27__unique_ptr_deleter_sfinaeIS9_EEXT_EE20__good_rval_ref_typeE, symObjAddr: 0xB62C, symBinAddr: 0x10000D0E0, symSize: 0x5C }
  - { offsetInCU: 0x1DE05, offset: 0x1DE05, size: 0x8, addend: 0x0, symName: __ZNSt3__117__compressed_pairIPNS_11__hash_nodeINS_17__hash_value_typeIdiEEPvEENS_26__hash_map_node_destructorINS_9allocatorIS5_EEEEEC1B7v160006IRS6_SA_EEOT_OT0_, symObjAddr: 0xB688, symBinAddr: 0x10000D13C, symSize: 0x3C }
  - { offsetInCU: 0x1DE5D, offset: 0x1DE5D, size: 0x8, addend: 0x0, symName: __ZNSt3__117__compressed_pairIPNS_11__hash_nodeINS_17__hash_value_typeIdiEEPvEENS_26__hash_map_node_destructorINS_9allocatorIS5_EEEEEC2B7v160006IRS6_SA_EEOT_OT0_, symObjAddr: 0xB6C4, symBinAddr: 0x10000D178, symSize: 0x48 }
  - { offsetInCU: 0x1DEB5, offset: 0x1DEB5, size: 0x8, addend: 0x0, symName: __ZNSt3__122__compressed_pair_elemINS_26__hash_map_node_destructorINS_9allocatorINS_11__hash_nodeINS_17__hash_value_typeIdiEEPvEEEEEELi1ELb0EEC2B7v160006IS9_vEEOT_, symObjAddr: 0xB70C, symBinAddr: 0x10000D1C0, symSize: 0x24 }
  - { offsetInCU: 0x1DEF7, offset: 0x1DEF7, size: 0x8, addend: 0x0, symName: __ZNSt3__19allocatorINS_11__hash_nodeINS_17__hash_value_typeIdiEEPvEEE9constructB7v160006IKdJRS8_EEEvPT_DpOT0_, symObjAddr: 0xB730, symBinAddr: 0x10000D1E4, symSize: 0x28 }
  - { offsetInCU: 0x1DF4D, offset: 0x1DF4D, size: 0x8, addend: 0x0, symName: __ZNKSt3__117__compressed_pairIPNS_11__hash_nodeINS_17__hash_value_typeIdiEEPvEENS_26__hash_map_node_destructorINS_9allocatorIS5_EEEEE5firstB7v160006Ev, symObjAddr: 0xB758, symBinAddr: 0x10000D20C, symSize: 0x24 }
  - { offsetInCU: 0x1DF73, offset: 0x1DF73, size: 0x8, addend: 0x0, symName: __ZNKSt3__122__compressed_pair_elemIPNS_11__hash_nodeINS_17__hash_value_typeIdiEEPvEELi0ELb0EE5__getB7v160006Ev, symObjAddr: 0xB77C, symBinAddr: 0x10000D230, symSize: 0x14 }
  - { offsetInCU: 0x1DF99, offset: 0x1DF99, size: 0x8, addend: 0x0, symName: __ZNSt3__117__compressed_pairIPNS_11__hash_nodeINS_17__hash_value_typeIdiEEPvEENS_26__hash_map_node_destructorINS_9allocatorIS5_EEEEE6secondB7v160006Ev, symObjAddr: 0xB790, symBinAddr: 0x10000D244, symSize: 0x28 }
  - { offsetInCU: 0x1DFBF, offset: 0x1DFBF, size: 0x8, addend: 0x0, symName: __ZNSt3__122__compressed_pair_elemINS_26__hash_map_node_destructorINS_9allocatorINS_11__hash_nodeINS_17__hash_value_typeIdiEEPvEEEEEELi1ELb0EE5__getB7v160006Ev, symObjAddr: 0xB7B8, symBinAddr: 0x10000D26C, symSize: 0x14 }
  - { offsetInCU: 0x1DFE5, offset: 0x1DFE5, size: 0x8, addend: 0x0, symName: __ZNSt3__19allocatorINS_11__hash_nodeINS_17__hash_value_typeIdiEEPvEEE9constructB7v160006IiJEEEvPT_DpOT0_, symObjAddr: 0xB7CC, symBinAddr: 0x10000D280, symSize: 0x1C }
  - { offsetInCU: 0x1E027, offset: 0x1E027, size: 0x8, addend: 0x0, symName: __ZNKSt3__122__unordered_map_hasherIdNS_17__hash_value_typeIdiEENS_4hashIdEENS_8equal_toIdEELb1EEclB7v160006ERKS2_, symObjAddr: 0xB7E8, symBinAddr: 0x10000D29C, symSize: 0x40 }
  - { offsetInCU: 0x1E05C, offset: 0x1E05C, size: 0x8, addend: 0x0, symName: __ZNSt3__112__hash_tableINS_17__hash_value_typeIdiEENS_22__unordered_map_hasherIdS2_NS_4hashIdEENS_8equal_toIdEELb1EEENS_21__unordered_map_equalIdS2_S7_S5_Lb1EEENS_9allocatorIS2_EEE28__node_insert_unique_prepareB7v160006EmRS2_, symObjAddr: 0xB828, symBinAddr: 0x10000D2DC, symSize: 0x244 }
  - { offsetInCU: 0x1E0DE, offset: 0x1E0DE, size: 0x8, addend: 0x0, symName: __ZNSt3__112__hash_tableINS_17__hash_value_typeIdiEENS_22__unordered_map_hasherIdS2_NS_4hashIdEENS_8equal_toIdEELb1EEENS_21__unordered_map_equalIdS2_S7_S5_Lb1EEENS_9allocatorIS2_EEE28__node_insert_unique_performB7v160006EPNS_11__hash_nodeIS2_PvEE, symObjAddr: 0xBA6C, symBinAddr: 0x10000D520, symSize: 0x154 }
  - { offsetInCU: 0x1E142, offset: 0x1E142, size: 0x8, addend: 0x0, symName: __ZNSt3__14pairINS_15__hash_iteratorIPNS_11__hash_nodeINS_17__hash_value_typeIdiEEPvEEEEbEC1B7v160006ERKS8_RKb, symObjAddr: 0xBBC0, symBinAddr: 0x10000D674, symSize: 0x3C }
  - { offsetInCU: 0x1E188, offset: 0x1E188, size: 0x8, addend: 0x0, symName: __ZNKSt3__121__unordered_map_equalIdNS_17__hash_value_typeIdiEENS_8equal_toIdEENS_4hashIdEELb1EEclB7v160006ERKS2_S9_, symObjAddr: 0xBBFC, symBinAddr: 0x10000D6B0, symSize: 0x54 }
  - { offsetInCU: 0x1E1CC, offset: 0x1E1CC, size: 0x8, addend: 0x0, symName: __ZNSt3__112__hash_tableINS_17__hash_value_typeIdiEENS_22__unordered_map_hasherIdS2_NS_4hashIdEENS_8equal_toIdEELb1EEENS_21__unordered_map_equalIdS2_S7_S5_Lb1EEENS_9allocatorIS2_EEE15max_load_factorB7v160006Ev, symObjAddr: 0xBC50, symBinAddr: 0x10000D704, symSize: 0x28 }
  - { offsetInCU: 0x1E1F2, offset: 0x1E1F2, size: 0x8, addend: 0x0, symName: __ZNSt3__112__hash_tableINS_17__hash_value_typeIdiEENS_22__unordered_map_hasherIdS2_NS_4hashIdEENS_8equal_toIdEELb1EEENS_21__unordered_map_equalIdS2_S7_S5_Lb1EEENS_9allocatorIS2_EEE15__rehash_uniqueB7v160006Em, symObjAddr: 0xBC78, symBinAddr: 0x10000D72C, symSize: 0x2C }
  - { offsetInCU: 0x1E227, offset: 0x1E227, size: 0x8, addend: 0x0, symName: __ZNSt3__117__compressed_pairIfNS_21__unordered_map_equalIdNS_17__hash_value_typeIdiEENS_8equal_toIdEENS_4hashIdEELb1EEEE5firstB7v160006Ev, symObjAddr: 0xBCA4, symBinAddr: 0x10000D758, symSize: 0x24 }
  - { offsetInCU: 0x1E24D, offset: 0x1E24D, size: 0x8, addend: 0x0, symName: __ZNSt3__112__hash_tableINS_17__hash_value_typeIdiEENS_22__unordered_map_hasherIdS2_NS_4hashIdEENS_8equal_toIdEELb1EEENS_21__unordered_map_equalIdS2_S7_S5_Lb1EEENS_9allocatorIS2_EEE8__rehashILb1EEEvm, symObjAddr: 0xBCC8, symBinAddr: 0x10000D77C, symSize: 0x1A8 }
  - { offsetInCU: 0x1E29D, offset: 0x1E29D, size: 0x8, addend: 0x0, symName: __ZNSt3__112__hash_tableINS_17__hash_value_typeIdiEENS_22__unordered_map_hasherIdS2_NS_4hashIdEENS_8equal_toIdEELb1EEENS_21__unordered_map_equalIdS2_S7_S5_Lb1EEENS_9allocatorIS2_EEE11__do_rehashILb1EEEvm, symObjAddr: 0xBE70, symBinAddr: 0x10000D924, symSize: 0x290 }
  - { offsetInCU: 0x1E384, offset: 0x1E384, size: 0x8, addend: 0x0, symName: __ZNSt3__110unique_ptrIA_PNS_16__hash_node_baseIPNS_11__hash_nodeINS_17__hash_value_typeIdiEEPvEEEENS_25__bucket_list_deallocatorINS_9allocatorIS9_EEEEE11get_deleterB7v160006Ev, symObjAddr: 0xC110, symBinAddr: 0x10000DBC4, symSize: 0x24 }
  - { offsetInCU: 0x1E3AA, offset: 0x1E3AA, size: 0x8, addend: 0x0, symName: __ZNSt3__110unique_ptrIA_PNS_16__hash_node_baseIPNS_11__hash_nodeINS_17__hash_value_typeIdiEEPvEEEENS_25__bucket_list_deallocatorINS_9allocatorIS9_EEEEE5resetB7v160006IPS9_EENS_9enable_ifIXsr28_CheckArrayPointerConversionIT_EE5valueEvE4typeESJ_, symObjAddr: 0xC134, symBinAddr: 0x10000DBE8, symSize: 0x78 }
  - { offsetInCU: 0x1E3F7, offset: 0x1E3F7, size: 0x8, addend: 0x0, symName: __ZNSt3__116allocator_traitsINS_9allocatorIPNS_16__hash_node_baseIPNS_11__hash_nodeINS_17__hash_value_typeIdiEEPvEEEEEEE8allocateB7v160006ERSB_m, symObjAddr: 0xC1AC, symBinAddr: 0x10000DC60, symSize: 0x2C }
  - { offsetInCU: 0x1E42A, offset: 0x1E42A, size: 0x8, addend: 0x0, symName: __ZNSt3__19allocatorIPNS_16__hash_node_baseIPNS_11__hash_nodeINS_17__hash_value_typeIdiEEPvEEEEE8allocateB7v160006Em, symObjAddr: 0xC1D8, symBinAddr: 0x10000DC8C, symSize: 0x84 }
  - { offsetInCU: 0x1E468, offset: 0x1E468, size: 0x8, addend: 0x0, symName: __ZNSt3__116allocator_traitsINS_9allocatorIPNS_16__hash_node_baseIPNS_11__hash_nodeINS_17__hash_value_typeIdiEEPvEEEEEEE8max_sizeB7v160006ISB_vEEmRKSB_, symObjAddr: 0xC25C, symBinAddr: 0x10000DD10, symSize: 0x24 }
  - { offsetInCU: 0x1E496, offset: 0x1E496, size: 0x8, addend: 0x0, symName: __ZNKSt3__19allocatorIPNS_16__hash_node_baseIPNS_11__hash_nodeINS_17__hash_value_typeIdiEEPvEEEEE8max_sizeB7v160006Ev, symObjAddr: 0xC280, symBinAddr: 0x10000DD34, symSize: 0x14 }
  - { offsetInCU: 0x1E4BC, offset: 0x1E4BC, size: 0x8, addend: 0x0, symName: __ZNSt3__14pairINS_15__hash_iteratorIPNS_11__hash_nodeINS_17__hash_value_typeIdiEEPvEEEEbEC2B7v160006ERKS8_RKb, symObjAddr: 0xC294, symBinAddr: 0x10000DD48, symSize: 0x38 }
  - { offsetInCU: 0x1E502, offset: 0x1E502, size: 0x8, addend: 0x0, symName: __ZNSt3__14pairINS_19__hash_map_iteratorINS_15__hash_iteratorIPNS_11__hash_nodeINS_17__hash_value_typeIdiEEPvEEEEEEbEC2B7v160006IS9_bEERKNS0_IT_T0_EE, symObjAddr: 0xC2CC, symBinAddr: 0x10000DD80, symSize: 0x50 }
  - { offsetInCU: 0x1E54C, offset: 0x1E54C, size: 0x8, addend: 0x0, symName: __ZNSt3__117__compressed_pairIPNS_11__hash_nodeINS_17__hash_value_typeIdiEEPvEENS_26__hash_map_node_destructorINS_9allocatorIS5_EEEEE5firstB7v160006Ev, symObjAddr: 0xC31C, symBinAddr: 0x10000DDD0, symSize: 0x24 }
  - { offsetInCU: 0x1E572, offset: 0x1E572, size: 0x8, addend: 0x0, symName: __ZNSt3__110unique_ptrINS_11__hash_nodeINS_17__hash_value_typeIdiEEPvEENS_26__hash_map_node_destructorINS_9allocatorIS5_EEEEED2B7v160006Ev, symObjAddr: 0xC340, symBinAddr: 0x10000DDF4, symSize: 0x30 }
  - { offsetInCU: 0x1E59C, offset: 0x1E59C, size: 0x8, addend: 0x0, symName: __ZNSt3__110unique_ptrINS_11__hash_nodeINS_17__hash_value_typeIdiEEPvEENS_26__hash_map_node_destructorINS_9allocatorIS5_EEEEE5resetB7v160006EPS5_, symObjAddr: 0xC370, symBinAddr: 0x10000DE24, symSize: 0x78 }
  - { offsetInCU: 0x1E5E0, offset: 0x1E5E0, size: 0x8, addend: 0x0, symName: __ZNSt3__126__hash_map_node_destructorINS_9allocatorINS_11__hash_nodeINS_17__hash_value_typeIdiEEPvEEEEEclB7v160006EPS6_, symObjAddr: 0xC3E8, symBinAddr: 0x10000DE9C, symSize: 0xE4 }
  - { offsetInCU: 0x1E615, offset: 0x1E615, size: 0x8, addend: 0x0, symName: __ZNSt3__116allocator_traitsINS_9allocatorINS_11__hash_nodeINS_17__hash_value_typeIdiEEPvEEEEE7destroyB7v160006IivvEEvRS7_PT_, symObjAddr: 0xC4CC, symBinAddr: 0x10000DF80, symSize: 0x14 }
  - { offsetInCU: 0x1E64F, offset: 0x1E64F, size: 0x8, addend: 0x0, symName: __ZNSt3__116allocator_traitsINS_9allocatorINS_11__hash_nodeINS_17__hash_value_typeIdiEEPvEEEEE7destroyB7v160006IKdvvEEvRS7_PT_, symObjAddr: 0xC4E0, symBinAddr: 0x10000DF94, symSize: 0x14 }
  - { offsetInCU: 0x1E689, offset: 0x1E689, size: 0x8, addend: 0x0, symName: __ZN10PriceLevel8newOrderEi5Order, symObjAddr: 0xC4F4, symBinAddr: 0x10000DFA8, symSize: 0x174 }
  - { offsetInCU: 0x1E6F8, offset: 0x1E6F8, size: 0x8, addend: 0x0, symName: __ZN10OrderIndex5IndexC1Eii, symObjAddr: 0xC668, symBinAddr: 0x10000E11C, symSize: 0x3C }
  - { offsetInCU: 0x1E73E, offset: 0x1E73E, size: 0x8, addend: 0x0, symName: __ZN10PriceLevel11insertOrderEi5Orderi, symObjAddr: 0xC6A4, symBinAddr: 0x10000E158, symSize: 0x7C }
  - { offsetInCU: 0x1E78F, offset: 0x1E78F, size: 0x8, addend: 0x0, symName: __ZN10OrderIndex5IndexC2Eii, symObjAddr: 0xC720, symBinAddr: 0x10000E1D4, symSize: 0x2C }
  - { offsetInCU: 0x1E7D5, offset: 0x1E7D5, size: 0x8, addend: 0x0, symName: __ZNK10OrderIndex5Index13coalesceValueEv, symObjAddr: 0xC74C, symBinAddr: 0x10000E200, symSize: 0x2C }
  - { offsetInCU: 0x1E7FB, offset: 0x1E7FB, size: 0x8, addend: 0x0, symName: __ZN10NumberUtil31coalescePriceAndOrderLevelIndexEii, symObjAddr: 0xC778, symBinAddr: 0x10000E22C, symSize: 0x20 }
  - { offsetInCU: 0x1E82C, offset: 0x1E82C, size: 0x8, addend: 0x0, symName: __ZNSt3__16vectorI5TradeNS_9allocatorIS1_EEED2B7v160006Ev, symObjAddr: 0xC798, symBinAddr: 0x10000E24C, symSize: 0x3C }
  - { offsetInCU: 0x1E856, offset: 0x1E856, size: 0x8, addend: 0x0, symName: __ZNSt3__16vectorI5TradeNS_9allocatorIS1_EEE16__destroy_vectorC1ERS4_, symObjAddr: 0xC7D4, symBinAddr: 0x10000E288, symSize: 0x34 }
  - { offsetInCU: 0x1E88F, offset: 0x1E88F, size: 0x8, addend: 0x0, symName: __ZNSt3__16vectorI5TradeNS_9allocatorIS1_EEE16__destroy_vectorclB7v160006Ev, symObjAddr: 0xC808, symBinAddr: 0x10000E2BC, symSize: 0x9C }
  - { offsetInCU: 0x1E8B5, offset: 0x1E8B5, size: 0x8, addend: 0x0, symName: __ZNSt3__16vectorI5TradeNS_9allocatorIS1_EEE16__destroy_vectorC2ERS4_, symObjAddr: 0xC8A4, symBinAddr: 0x10000E358, symSize: 0x20 }
  - { offsetInCU: 0x1E8EE, offset: 0x1E8EE, size: 0x8, addend: 0x0, symName: __ZNSt3__16vectorI5TradeNS_9allocatorIS1_EEE7__clearB7v160006Ev, symObjAddr: 0xC8D4, symBinAddr: 0x10000E388, symSize: 0x28 }
  - { offsetInCU: 0x1E914, offset: 0x1E914, size: 0x8, addend: 0x0, symName: __ZNSt3__16vectorI5TradeNS_9allocatorIS1_EEE22__base_destruct_at_endB7v160006EPS1_, symObjAddr: 0xC8FC, symBinAddr: 0x10000E3B0, symSize: 0xA0 }
  - { offsetInCU: 0x1E958, offset: 0x1E958, size: 0x8, addend: 0x0, symName: __ZN9OrderBook13onCancelOrderEiRKN10OrderIndex5IndexE, symObjAddr: 0xC99C, symBinAddr: 0x10000E450, symSize: 0xEC }
  - { offsetInCU: 0x1E9E0, offset: 0x1E9E0, size: 0x8, addend: 0x0, symName: __ZNK10PriceLevel8getPriceEv, symObjAddr: 0xCA88, symBinAddr: 0x10000E53C, symSize: 0x18 }
  - { offsetInCU: 0x1EA06, offset: 0x1EA06, size: 0x8, addend: 0x0, symName: __ZN10PriceLevel11cancelOrderEii, symObjAddr: 0xCAA0, symBinAddr: 0x10000E554, symSize: 0xA4 }
  - { offsetInCU: 0x1EA48, offset: 0x1EA48, size: 0x8, addend: 0x0, symName: __ZN9OrderBook13adjustIndexesEii, symObjAddr: 0xCB44, symBinAddr: 0x10000E5F8, symSize: 0x1FC }
  - { offsetInCU: 0x1EA8A, offset: 0x1EA8A, size: 0x8, addend: 0x0, symName: __ZN10PriceLevel11adjustIndexEi, symObjAddr: 0xCD40, symBinAddr: 0x10000E7F4, symSize: 0x1E8 }
  - { offsetInCU: 0x1EABE, offset: 0x1EABE, size: 0x8, addend: 0x0, symName: __ZN9OrderBook5resetEv, symObjAddr: 0xCF28, symBinAddr: 0x10000E9DC, symSize: 0x20 }
  - { offsetInCU: 0x1EAE4, offset: 0x1EAE4, size: 0x8, addend: 0x0, symName: __ZN5OrderC1Eid4Side, symObjAddr: 0xCF48, symBinAddr: 0x10000E9FC, symSize: 0x44 }
  - { offsetInCU: 0x1EB38, offset: 0x1EB38, size: 0x8, addend: 0x0, symName: __ZNK6Engine8toStringEv, symObjAddr: 0xCFD8, symBinAddr: 0x10000EA8C, symSize: 0x188 }
  - { offsetInCU: 0x1EB5E, offset: 0x1EB5E, size: 0x8, addend: 0x0, symName: __ZN5OrderC2Eid4Side, symObjAddr: 0xD160, symBinAddr: 0x10000EC14, symSize: 0x38 }
  - { offsetInCU: 0x1EBB2, offset: 0x1EBB2, size: 0x8, addend: 0x0, symName: __ZNKSt3__112basic_stringIcNS_11char_traitsIcEENS_9allocatorIcEEE4dataB7v160006Ev, symObjAddr: 0xD38C, symBinAddr: 0x10000EE40, symSize: 0x28 }
  - { offsetInCU: 0x1EBD8, offset: 0x1EBD8, size: 0x8, addend: 0x0, symName: __ZNKSt3__112basic_stringIcNS_11char_traitsIcEENS_9allocatorIcEEE4sizeB7v160006Ev, symObjAddr: 0xD3B4, symBinAddr: 0x10000EE68, symSize: 0x54 }
  - { offsetInCU: 0x1EC1C, offset: 0x1EC1C, size: 0x8, addend: 0x0, symName: __ZNKSt3__113basic_ostreamIcNS_11char_traitsIcEEE6sentrycvbB7v160006Ev, symObjAddr: 0xD408, symBinAddr: 0x10000EEBC, symSize: 0x1C }
  - { offsetInCU: 0x1EC42, offset: 0x1EC42, size: 0x8, addend: 0x0, symName: __ZNSt3__119ostreambuf_iteratorIcNS_11char_traitsIcEEEC1B7v160006ERNS_13basic_ostreamIcS2_EE, symObjAddr: 0xD66C, symBinAddr: 0x10000F120, symSize: 0x34 }
  - { offsetInCU: 0x1EC7A, offset: 0x1EC7A, size: 0x8, addend: 0x0, symName: __ZNKSt3__18ios_base5flagsB7v160006Ev, symObjAddr: 0xD6A0, symBinAddr: 0x10000F154, symSize: 0x18 }
  - { offsetInCU: 0x1ECA2, offset: 0x1ECA2, size: 0x8, addend: 0x0, symName: __ZNKSt3__19basic_iosIcNS_11char_traitsIcEEE4fillB7v160006Ev, symObjAddr: 0xD6B8, symBinAddr: 0x10000F16C, symSize: 0x64 }
  - { offsetInCU: 0x1ECCA, offset: 0x1ECCA, size: 0x8, addend: 0x0, symName: __ZNKSt3__119ostreambuf_iteratorIcNS_11char_traitsIcEEE6failedB7v160006Ev, symObjAddr: 0xD71C, symBinAddr: 0x10000F1D0, symSize: 0x24 }
  - { offsetInCU: 0x1ECF0, offset: 0x1ECF0, size: 0x8, addend: 0x0, symName: __ZNSt3__19basic_iosIcNS_11char_traitsIcEEE8setstateB7v160006Ej, symObjAddr: 0xD740, symBinAddr: 0x10000F1F4, symSize: 0x2C }
  - { offsetInCU: 0x1ED25, offset: 0x1ED25, size: 0x8, addend: 0x0, symName: __ZNKSt3__18ios_base5widthB7v160006Ev, symObjAddr: 0xD76C, symBinAddr: 0x10000F220, symSize: 0x18 }
  - { offsetInCU: 0x1ED4D, offset: 0x1ED4D, size: 0x8, addend: 0x0, symName: __ZNSt3__115basic_streambufIcNS_11char_traitsIcEEE5sputnB7v160006EPKcl, symObjAddr: 0xD784, symBinAddr: 0x10000F238, symSize: 0x3C }
  - { offsetInCU: 0x1ED8F, offset: 0x1ED8F, size: 0x8, addend: 0x0, symName: __ZNSt3__112basic_stringIcNS_11char_traitsIcEENS_9allocatorIcEEEC1B7v160006Emc, symObjAddr: 0xD7C0, symBinAddr: 0x10000F274, symSize: 0x3C }
  - { offsetInCU: 0x1EDD7, offset: 0x1EDD7, size: 0x8, addend: 0x0, symName: __ZNSt3__18ios_base5widthB7v160006El, symObjAddr: 0xD7FC, symBinAddr: 0x10000F2B0, symSize: 0x2C }
  - { offsetInCU: 0x1EE1D, offset: 0x1EE1D, size: 0x8, addend: 0x0, symName: __ZNSt3__112basic_stringIcNS_11char_traitsIcEENS_9allocatorIcEEEC2B7v160006Emc, symObjAddr: 0xD828, symBinAddr: 0x10000F2DC, symSize: 0x54 }
  - { offsetInCU: 0x1EE65, offset: 0x1EE65, size: 0x8, addend: 0x0, symName: __ZNSt3__117__compressed_pairINS_12basic_stringIcNS_11char_traitsIcEENS_9allocatorIcEEE5__repES5_EC1B7v160006INS_18__default_init_tagESA_EEOT_OT0_, symObjAddr: 0xD87C, symBinAddr: 0x10000F330, symSize: 0x3C }
  - { offsetInCU: 0x1EEBD, offset: 0x1EEBD, size: 0x8, addend: 0x0, symName: __ZNSt3__117__compressed_pairINS_12basic_stringIcNS_11char_traitsIcEENS_9allocatorIcEEE5__repES5_EC2B7v160006INS_18__default_init_tagESA_EEOT_OT0_, symObjAddr: 0xD8C8, symBinAddr: 0x10000F37C, symSize: 0x3C }
  - { offsetInCU: 0x1EF15, offset: 0x1EF15, size: 0x8, addend: 0x0, symName: __ZNSt3__122__compressed_pair_elemINS_12basic_stringIcNS_11char_traitsIcEENS_9allocatorIcEEE5__repELi0ELb0EEC2B7v160006ENS_18__default_init_tagE, symObjAddr: 0xD904, symBinAddr: 0x10000F3B8, symSize: 0x14 }
  - { offsetInCU: 0x1EF4A, offset: 0x1EF4A, size: 0x8, addend: 0x0, symName: __ZNSt3__122__compressed_pair_elemINS_9allocatorIcEELi1ELb1EEC2B7v160006ENS_18__default_init_tagE, symObjAddr: 0xD918, symBinAddr: 0x10000F3CC, symSize: 0x2C }
  - { offsetInCU: 0x1EF7F, offset: 0x1EF7F, size: 0x8, addend: 0x0, symName: __ZNSt3__19allocatorIcEC2B7v160006Ev, symObjAddr: 0xD944, symBinAddr: 0x10000F3F8, symSize: 0x2C }
  - { offsetInCU: 0x1EFA9, offset: 0x1EFA9, size: 0x8, addend: 0x0, symName: __ZNSt3__116__non_trivial_ifILb1ENS_9allocatorIcEEEC2B7v160006Ev, symObjAddr: 0xD970, symBinAddr: 0x10000F424, symSize: 0x14 }
  - { offsetInCU: 0x1EFD3, offset: 0x1EFD3, size: 0x8, addend: 0x0, symName: __ZNSt3__119ostreambuf_iteratorIcNS_11char_traitsIcEEEC2B7v160006ERNS_13basic_ostreamIcS2_EE, symObjAddr: 0xD984, symBinAddr: 0x10000F438, symSize: 0x68 }
  - { offsetInCU: 0x1F00B, offset: 0x1F00B, size: 0x8, addend: 0x0, symName: __ZNKSt3__19basic_iosIcNS_11char_traitsIcEEE5rdbufB7v160006Ev, symObjAddr: 0xD9EC, symBinAddr: 0x10000F4A0, symSize: 0x24 }
  - { offsetInCU: 0x1F033, offset: 0x1F033, size: 0x8, addend: 0x0, symName: __ZNKSt3__18ios_base5rdbufB7v160006Ev, symObjAddr: 0xDA10, symBinAddr: 0x10000F4C4, symSize: 0x18 }
  - { offsetInCU: 0x1F059, offset: 0x1F059, size: 0x8, addend: 0x0, symName: __ZNSt3__111char_traitsIcE11eq_int_typeEii, symObjAddr: 0xDA28, symBinAddr: 0x10000F4DC, symSize: 0x28 }
  - { offsetInCU: 0x1F08A, offset: 0x1F08A, size: 0x8, addend: 0x0, symName: __ZNSt3__111char_traitsIcE3eofEv, symObjAddr: 0xDA50, symBinAddr: 0x10000F504, symSize: 0x8 }
  - { offsetInCU: 0x1F09E, offset: 0x1F09E, size: 0x8, addend: 0x0, symName: __ZNSt3__18ios_base8setstateB7v160006Ej, symObjAddr: 0xDA58, symBinAddr: 0x10000F50C, symSize: 0x34 }
  - { offsetInCU: 0x1F0D5, offset: 0x1F0D5, size: 0x8, addend: 0x0, symName: __ZNKSt3__112basic_stringIcNS_11char_traitsIcEENS_9allocatorIcEEE13__get_pointerB7v160006Ev, symObjAddr: 0xDAA0, symBinAddr: 0x10000F554, symSize: 0x54 }
  - { offsetInCU: 0x1F0FB, offset: 0x1F0FB, size: 0x8, addend: 0x0, symName: __ZNKSt3__112basic_stringIcNS_11char_traitsIcEENS_9allocatorIcEEE9__is_longB7v160006Ev, symObjAddr: 0xDAF4, symBinAddr: 0x10000F5A8, symSize: 0x74 }
  - { offsetInCU: 0x1F121, offset: 0x1F121, size: 0x8, addend: 0x0, symName: __ZNKSt3__112basic_stringIcNS_11char_traitsIcEENS_9allocatorIcEEE18__get_long_pointerB7v160006Ev, symObjAddr: 0xDB68, symBinAddr: 0x10000F61C, symSize: 0x28 }
  - { offsetInCU: 0x1F147, offset: 0x1F147, size: 0x8, addend: 0x0, symName: __ZNKSt3__112basic_stringIcNS_11char_traitsIcEENS_9allocatorIcEEE19__get_short_pointerB7v160006Ev, symObjAddr: 0xDB90, symBinAddr: 0x10000F644, symSize: 0x28 }
  - { offsetInCU: 0x1F16D, offset: 0x1F16D, size: 0x8, addend: 0x0, symName: __ZNKSt3__117__compressed_pairINS_12basic_stringIcNS_11char_traitsIcEENS_9allocatorIcEEE5__repES5_E5firstB7v160006Ev, symObjAddr: 0xDBB8, symBinAddr: 0x10000F66C, symSize: 0x24 }
  - { offsetInCU: 0x1F193, offset: 0x1F193, size: 0x8, addend: 0x0, symName: __ZNKSt3__122__compressed_pair_elemINS_12basic_stringIcNS_11char_traitsIcEENS_9allocatorIcEEE5__repELi0ELb0EE5__getB7v160006Ev, symObjAddr: 0xDBDC, symBinAddr: 0x10000F690, symSize: 0x14 }
  - { offsetInCU: 0x1F1B9, offset: 0x1F1B9, size: 0x8, addend: 0x0, symName: __ZNSt3__114pointer_traitsIPKcE10pointer_toB7v160006ERS1_, symObjAddr: 0xDBF0, symBinAddr: 0x10000F6A4, symSize: 0x14 }
  - { offsetInCU: 0x1F1DC, offset: 0x1F1DC, size: 0x8, addend: 0x0, symName: __ZNKSt3__112basic_stringIcNS_11char_traitsIcEENS_9allocatorIcEEE15__get_long_sizeB7v160006Ev, symObjAddr: 0xDC04, symBinAddr: 0x10000F6B8, symSize: 0x28 }
  - { offsetInCU: 0x1F202, offset: 0x1F202, size: 0x8, addend: 0x0, symName: __ZNKSt3__112basic_stringIcNS_11char_traitsIcEENS_9allocatorIcEEE16__get_short_sizeB7v160006Ev, symObjAddr: 0xDC2C, symBinAddr: 0x10000F6E0, symSize: 0x34 }
  - { offsetInCU: 0x1F228, offset: 0x1F228, size: 0x8, addend: 0x0, symName: __ZNK9OrderBook8toStringEv, symObjAddr: 0xDFC0, symBinAddr: 0x10000FA74, symSize: 0x24C }
  - { offsetInCU: 0x1F267, offset: 0x1F267, size: 0x8, addend: 0x0, symName: __ZNSt3__116allocator_traitsINS_9allocatorIcEEE37select_on_container_copy_constructionB7v160006IS2_vvEES2_RKS2_, symObjAddr: 0xE20C, symBinAddr: 0x10000FCC0, symSize: 0x10 }
  - { offsetInCU: 0x1F296, offset: 0x1F296, size: 0x8, addend: 0x0, symName: __ZNKSt3__112basic_stringIcNS_11char_traitsIcEENS_9allocatorIcEEE13get_allocatorB7v160006Ev, symObjAddr: 0xE21C, symBinAddr: 0x10000FCD0, symSize: 0x24 }
  - { offsetInCU: 0x1F2BC, offset: 0x1F2BC, size: 0x8, addend: 0x0, symName: __ZNSt3__112basic_stringIcNS_11char_traitsIcEENS_9allocatorIcEEEC1B7v160006ENS_24__uninitialized_size_tagEmRKS4_, symObjAddr: 0xE240, symBinAddr: 0x10000FCF4, symSize: 0x3C }
  - { offsetInCU: 0x1F30F, offset: 0x1F30F, size: 0x8, addend: 0x0, symName: __ZNSt3__112basic_stringIcNS_11char_traitsIcEENS_9allocatorIcEEE13__get_pointerB7v160006Ev, symObjAddr: 0xE290, symBinAddr: 0x10000FD44, symSize: 0x54 }
  - { offsetInCU: 0x1F335, offset: 0x1F335, size: 0x8, addend: 0x0, symName: __ZNSt3__111char_traitsIcE4copyEPcPKcm, symObjAddr: 0xE2E4, symBinAddr: 0x10000FD98, symSize: 0x80 }
  - { offsetInCU: 0x1F374, offset: 0x1F374, size: 0x8, addend: 0x0, symName: __ZNSt3__111char_traitsIcE6assignEPcmc, symObjAddr: 0xE364, symBinAddr: 0x10000FE18, symSize: 0x58 }
  - { offsetInCU: 0x1F3B3, offset: 0x1F3B3, size: 0x8, addend: 0x0, symName: __ZNKSt3__112basic_stringIcNS_11char_traitsIcEENS_9allocatorIcEEE7__allocB7v160006Ev, symObjAddr: 0xE3BC, symBinAddr: 0x10000FE70, symSize: 0x24 }
  - { offsetInCU: 0x1F3D9, offset: 0x1F3D9, size: 0x8, addend: 0x0, symName: __ZNKSt3__117__compressed_pairINS_12basic_stringIcNS_11char_traitsIcEENS_9allocatorIcEEE5__repES5_E6secondB7v160006Ev, symObjAddr: 0xE3E0, symBinAddr: 0x10000FE94, symSize: 0x24 }
  - { offsetInCU: 0x1F3FF, offset: 0x1F3FF, size: 0x8, addend: 0x0, symName: __ZNKSt3__122__compressed_pair_elemINS_9allocatorIcEELi1ELb1EE5__getB7v160006Ev, symObjAddr: 0xE404, symBinAddr: 0x10000FEB8, symSize: 0x14 }
  - { offsetInCU: 0x1F425, offset: 0x1F425, size: 0x8, addend: 0x0, symName: __ZNSt3__112basic_stringIcNS_11char_traitsIcEENS_9allocatorIcEEEC2B7v160006ENS_24__uninitialized_size_tagEmRKS4_, symObjAddr: 0xE418, symBinAddr: 0x10000FECC, symSize: 0x118 }
  - { offsetInCU: 0x1F4A5, offset: 0x1F4A5, size: 0x8, addend: 0x0, symName: __ZNSt3__117__compressed_pairINS_12basic_stringIcNS_11char_traitsIcEENS_9allocatorIcEEE5__repES5_EC1B7v160006INS_18__default_init_tagERKS5_EEOT_OT0_, symObjAddr: 0xE530, symBinAddr: 0x10000FFE4, symSize: 0x3C }
  - { offsetInCU: 0x1F4FD, offset: 0x1F4FD, size: 0x8, addend: 0x0, symName: __ZNKSt3__112basic_stringIcNS_11char_traitsIcEENS_9allocatorIcEEE8max_sizeB7v160006Ev, symObjAddr: 0xE56C, symBinAddr: 0x100010020, symSize: 0xAC }
  - { offsetInCU: 0x1F550, offset: 0x1F550, size: 0x8, addend: 0x0, symName: __ZNKSt3__112basic_stringIcNS_11char_traitsIcEENS_9allocatorIcEEE20__throw_length_errorB7v160006Ev, symObjAddr: 0xE618, symBinAddr: 0x1000100CC, symSize: 0x1C }
  - { offsetInCU: 0x1F576, offset: 0x1F576, size: 0x8, addend: 0x0, symName: __ZNSt3__112basic_stringIcNS_11char_traitsIcEENS_9allocatorIcEEE13__fits_in_ssoB7v160006Em, symObjAddr: 0xE634, symBinAddr: 0x1000100E8, symSize: 0x4C }
  - { offsetInCU: 0x1F59A, offset: 0x1F59A, size: 0x8, addend: 0x0, symName: __ZNSt3__117__compressed_pairINS_12basic_stringIcNS_11char_traitsIcEENS_9allocatorIcEEE5__repES5_E5firstB7v160006Ev, symObjAddr: 0xE680, symBinAddr: 0x100010134, symSize: 0x24 }
  - { offsetInCU: 0x1F5C0, offset: 0x1F5C0, size: 0x8, addend: 0x0, symName: __ZNSt3__112basic_stringIcNS_11char_traitsIcEENS_9allocatorIcEEE16__set_short_sizeB7v160006Em, symObjAddr: 0xE6A4, symBinAddr: 0x100010158, symSize: 0x78 }
  - { offsetInCU: 0x1F5F5, offset: 0x1F5F5, size: 0x8, addend: 0x0, symName: __ZNSt3__112basic_stringIcNS_11char_traitsIcEENS_9allocatorIcEEE11__recommendB7v160006Em, symObjAddr: 0xE71C, symBinAddr: 0x1000101D0, symSize: 0x9C }
  - { offsetInCU: 0x1F628, offset: 0x1F628, size: 0x8, addend: 0x0, symName: __ZNSt3__116allocator_traitsINS_9allocatorIcEEE8allocateB7v160006ERS2_m, symObjAddr: 0xE7B8, symBinAddr: 0x10001026C, symSize: 0x2C }
  - { offsetInCU: 0x1F65B, offset: 0x1F65B, size: 0x8, addend: 0x0, symName: __ZNSt3__112basic_stringIcNS_11char_traitsIcEENS_9allocatorIcEEE7__allocB7v160006Ev, symObjAddr: 0xE7E4, symBinAddr: 0x100010298, symSize: 0x24 }
  - { offsetInCU: 0x1F681, offset: 0x1F681, size: 0x8, addend: 0x0, symName: __ZNSt3__112basic_stringIcNS_11char_traitsIcEENS_9allocatorIcEEE16__begin_lifetimeB7v160006EPcm, symObjAddr: 0xE808, symBinAddr: 0x1000102BC, symSize: 0x14 }
  - { offsetInCU: 0x1F6B4, offset: 0x1F6B4, size: 0x8, addend: 0x0, symName: __ZNSt3__112basic_stringIcNS_11char_traitsIcEENS_9allocatorIcEEE14__set_long_capB7v160006Em, symObjAddr: 0xE81C, symBinAddr: 0x1000102D0, symSize: 0x70 }
  - { offsetInCU: 0x1F6E9, offset: 0x1F6E9, size: 0x8, addend: 0x0, symName: __ZNSt3__112basic_stringIcNS_11char_traitsIcEENS_9allocatorIcEEE18__set_long_pointerB7v160006EPc, symObjAddr: 0xE88C, symBinAddr: 0x100010340, symSize: 0x38 }
  - { offsetInCU: 0x1F71E, offset: 0x1F71E, size: 0x8, addend: 0x0, symName: __ZNSt3__112basic_stringIcNS_11char_traitsIcEENS_9allocatorIcEEE15__set_long_sizeB7v160006Em, symObjAddr: 0xE8C4, symBinAddr: 0x100010378, symSize: 0x38 }
  - { offsetInCU: 0x1F753, offset: 0x1F753, size: 0x8, addend: 0x0, symName: __ZNSt3__117__compressed_pairINS_12basic_stringIcNS_11char_traitsIcEENS_9allocatorIcEEE5__repES5_EC2B7v160006INS_18__default_init_tagERKS5_EEOT_OT0_, symObjAddr: 0xE8FC, symBinAddr: 0x1000103B0, symSize: 0x40 }
  - { offsetInCU: 0x1F7AB, offset: 0x1F7AB, size: 0x8, addend: 0x0, symName: __ZNSt3__122__compressed_pair_elemINS_9allocatorIcEELi1ELb1EEC2B7v160006IRKS2_vEEOT_, symObjAddr: 0xE93C, symBinAddr: 0x1000103F0, symSize: 0x18 }
  - { offsetInCU: 0x1F7ED, offset: 0x1F7ED, size: 0x8, addend: 0x0, symName: __ZNSt3__116allocator_traitsINS_9allocatorIcEEE8max_sizeB7v160006IS2_vEEmRKS2_, symObjAddr: 0xE954, symBinAddr: 0x100010408, symSize: 0x24 }
  - { offsetInCU: 0x1F81B, offset: 0x1F81B, size: 0x8, addend: 0x0, symName: __ZNSt3__114numeric_limitsImE3maxB7v160006Ev, symObjAddr: 0xE978, symBinAddr: 0x10001042C, symSize: 0x14 }
  - { offsetInCU: 0x1F82F, offset: 0x1F82F, size: 0x8, addend: 0x0, symName: __ZNKSt3__19allocatorIcE8max_sizeB7v160006Ev, symObjAddr: 0xE98C, symBinAddr: 0x100010440, symSize: 0x14 }
  - { offsetInCU: 0x1F855, offset: 0x1F855, size: 0x8, addend: 0x0, symName: __ZNSt3__123__libcpp_numeric_limitsImLb1EE3maxB7v160006Ev, symObjAddr: 0xE9A0, symBinAddr: 0x100010454, symSize: 0x8 }
  - { offsetInCU: 0x1F869, offset: 0x1F869, size: 0x8, addend: 0x0, symName: __ZNSt3__122__compressed_pair_elemINS_12basic_stringIcNS_11char_traitsIcEENS_9allocatorIcEEE5__repELi0ELb0EE5__getB7v160006Ev, symObjAddr: 0xE9A8, symBinAddr: 0x10001045C, symSize: 0x14 }
  - { offsetInCU: 0x1F88F, offset: 0x1F88F, size: 0x8, addend: 0x0, symName: __ZNSt3__112basic_stringIcNS_11char_traitsIcEENS_9allocatorIcEEE10__align_itB7v160006ILm16EEEmm, symObjAddr: 0xE9BC, symBinAddr: 0x100010470, symSize: 0x1C }
  - { offsetInCU: 0x1F8BD, offset: 0x1F8BD, size: 0x8, addend: 0x0, symName: __ZNSt3__19allocatorIcE8allocateB7v160006Em, symObjAddr: 0xE9D8, symBinAddr: 0x10001048C, symSize: 0x84 }
  - { offsetInCU: 0x1F8F1, offset: 0x1F8F1, size: 0x8, addend: 0x0, symName: __ZNSt3__117__compressed_pairINS_12basic_stringIcNS_11char_traitsIcEENS_9allocatorIcEEE5__repES5_E6secondB7v160006Ev, symObjAddr: 0xEA5C, symBinAddr: 0x100010510, symSize: 0x24 }
  - { offsetInCU: 0x1F917, offset: 0x1F917, size: 0x8, addend: 0x0, symName: __ZNSt3__122__compressed_pair_elemINS_9allocatorIcEELi1ELb1EE5__getB7v160006Ev, symObjAddr: 0xEA80, symBinAddr: 0x100010534, symSize: 0x14 }
  - { offsetInCU: 0x1F93D, offset: 0x1F93D, size: 0x8, addend: 0x0, symName: __ZNSt3__112basic_stringIcNS_11char_traitsIcEENS_9allocatorIcEEE18__get_long_pointerB7v160006Ev, symObjAddr: 0xEA94, symBinAddr: 0x100010548, symSize: 0x28 }
  - { offsetInCU: 0x1F963, offset: 0x1F963, size: 0x8, addend: 0x0, symName: __ZNSt3__112basic_stringIcNS_11char_traitsIcEENS_9allocatorIcEEE19__get_short_pointerB7v160006Ev, symObjAddr: 0xEABC, symBinAddr: 0x100010570, symSize: 0x28 }
  - { offsetInCU: 0x1F989, offset: 0x1F989, size: 0x8, addend: 0x0, symName: __ZNSt3__114pointer_traitsIPcE10pointer_toB7v160006ERc, symObjAddr: 0xEAE4, symBinAddr: 0x100010598, symSize: 0x14 }
  - { offsetInCU: 0x1F9E4, offset: 0x1F9E4, size: 0x8, addend: 0x0, symName: __ZNKSt3__114__copy_trivialclB7v160006IKccLi0EEENS_4pairIPT_PT0_EES5_S5_S7_, symObjAddr: 0xED28, symBinAddr: 0x1000107DC, symSize: 0x48 }
  - { offsetInCU: 0x1FA66, offset: 0x1FA66, size: 0x8, addend: 0x0, symName: __ZNSt3__14pairIPKcS2_EC1B7v160006ERKS2_S5_, symObjAddr: 0xEEA4, symBinAddr: 0x100010958, symSize: 0x3C }
  - { offsetInCU: 0x1FAAC, offset: 0x1FAAC, size: 0x8, addend: 0x0, symName: __ZNSt3__14pairIPKcS2_EC2B7v160006ERKS2_S5_, symObjAddr: 0xEEE0, symBinAddr: 0x100010994, symSize: 0x34 }
  - { offsetInCU: 0x1FAF2, offset: 0x1FAF2, size: 0x8, addend: 0x0, symName: __ZNSt3__118__unwrap_iter_implIPKcLb1EE8__unwrapB7v160006ES2_, symObjAddr: 0xEF14, symBinAddr: 0x1000109C8, symSize: 0x24 }
  - { offsetInCU: 0x1FB15, offset: 0x1FB15, size: 0x8, addend: 0x0, symName: __ZNSt3__14pairIPKcPcEC1B7v160006ERKS2_RKS3_, symObjAddr: 0xEFEC, symBinAddr: 0x100010AA0, symSize: 0x3C }
  - { offsetInCU: 0x1FB5B, offset: 0x1FB5B, size: 0x8, addend: 0x0, symName: __ZNSt3__14pairIPKcPcEC2B7v160006ERKS2_RKS3_, symObjAddr: 0xF028, symBinAddr: 0x100010ADC, symSize: 0x34 }
  - { offsetInCU: 0x1FBA1, offset: 0x1FBA1, size: 0x8, addend: 0x0, symName: __ZNSt3__118__unwrap_iter_implIPcLb1EE8__unwrapB7v160006ES1_, symObjAddr: 0xF05C, symBinAddr: 0x100010B10, symSize: 0x24 }
  - { offsetInCU: 0x1FBC4, offset: 0x1FBC4, size: 0x8, addend: 0x0, symName: __ZNSt3__118__unwrap_iter_implIPKcLb1EE8__rewrapB7v160006ES2_S2_, symObjAddr: 0xF0D0, symBinAddr: 0x100010B84, symSize: 0x48 }
  - { offsetInCU: 0x1FBF5, offset: 0x1FBF5, size: 0x8, addend: 0x0, symName: __ZNSt3__118__unwrap_iter_implIPcLb1EE8__rewrapB7v160006ES1_S1_, symObjAddr: 0xF118, symBinAddr: 0x100010BCC, symSize: 0x48 }
  - { offsetInCU: 0x1FC26, offset: 0x1FC26, size: 0x8, addend: 0x0, symName: __ZNSt3__111char_traitsIcE6lengthEPKc, symObjAddr: 0xF21C, symBinAddr: 0x100010CD0, symSize: 0x48 }
  - { offsetInCU: 0x1FC4E, offset: 0x1FC4E, size: 0x8, addend: 0x0, symName: __ZNSt3__112basic_stringIcNS_11char_traitsIcEENS_9allocatorIcEEEC1B7v160006IDnEEPKc, symObjAddr: 0xF288, symBinAddr: 0x100010D3C, symSize: 0x34 }
  - { offsetInCU: 0x1FC8C, offset: 0x1FC8C, size: 0x8, addend: 0x0, symName: __ZNSt3__112basic_stringIcNS_11char_traitsIcEENS_9allocatorIcEEEpLB7v160006ERKS5_, symObjAddr: 0xF2BC, symBinAddr: 0x100010D70, symSize: 0x2C }
  - { offsetInCU: 0x1FCC1, offset: 0x1FCC1, size: 0x8, addend: 0x0, symName: __ZNK9OrderBook14priceLevelInfoEv, symObjAddr: 0xF2E8, symBinAddr: 0x100010D9C, symSize: 0x238 }
  - { offsetInCU: 0x1FD26, offset: 0x1FD26, size: 0x8, addend: 0x0, symName: __ZNSt3__112basic_stringIcNS_11char_traitsIcEENS_9allocatorIcEEEC2B7v160006IDnEEPKc, symObjAddr: 0xF520, symBinAddr: 0x100010FD4, symSize: 0x60 }
  - { offsetInCU: 0x1FD64, offset: 0x1FD64, size: 0x8, addend: 0x0, symName: __ZNSt3__112basic_stringIcNS_11char_traitsIcEENS_9allocatorIcEEE6appendB7v160006ERKS5_, symObjAddr: 0xF580, symBinAddr: 0x100011034, symSize: 0x4C }
  - { offsetInCU: 0x1FD99, offset: 0x1FD99, size: 0x8, addend: 0x0, symName: __ZNSt3__112basic_stringIcNS_11char_traitsIcEENS_9allocatorIcEEEC1B7v160006Ev, symObjAddr: 0xF5CC, symBinAddr: 0x100011080, symSize: 0x2C }
  - { offsetInCU: 0x1FDC3, offset: 0x1FDC3, size: 0x8, addend: 0x0, symName: __ZNKSt3__16vectorI10PriceLevelNS_9allocatorIS1_EEEixB7v160006Em, symObjAddr: 0xF5F8, symBinAddr: 0x1000110AC, symSize: 0x30 }
  - { offsetInCU: 0x1FDFA, offset: 0x1FDFA, size: 0x8, addend: 0x0, symName: __ZNKSt3__113unordered_mapIdiNS_4hashIdEENS_8equal_toIdEENS_9allocatorINS_4pairIKdiEEEEE2atERS7_, symObjAddr: 0xF628, symBinAddr: 0x1000110DC, symSize: 0x7C }
  - { offsetInCU: 0x1FE40, offset: 0x1FE40, size: 0x8, addend: 0x0, symName: __ZNK10PriceLevel8toStringEv, symObjAddr: 0xF6A4, symBinAddr: 0x100011158, symSize: 0x3DC }
  - { offsetInCU: 0x1FE66, offset: 0x1FE66, size: 0x8, addend: 0x0, symName: __ZNSt3__112basic_stringIcNS_11char_traitsIcEENS_9allocatorIcEEEC2B7v160006Ev, symObjAddr: 0xFA80, symBinAddr: 0x100011534, symSize: 0x44 }
  - { offsetInCU: 0x1FE90, offset: 0x1FE90, size: 0x8, addend: 0x0, symName: __ZNSt3__112basic_stringIcNS_11char_traitsIcEENS_9allocatorIcEEE14__default_initB7v160006Ev, symObjAddr: 0xFAC4, symBinAddr: 0x100011578, symSize: 0xB0 }
  - { offsetInCU: 0x1FEE3, offset: 0x1FEE3, size: 0x8, addend: 0x0, symName: __ZNKSt3__113unordered_mapIdiNS_4hashIdEENS_8equal_toIdEENS_9allocatorINS_4pairIKdiEEEEE4findB7v160006ERS7_, symObjAddr: 0xFB74, symBinAddr: 0x100011628, symSize: 0x40 }
  - { offsetInCU: 0x1FF18, offset: 0x1FF18, size: 0x8, addend: 0x0, symName: __ZNKSt3__113unordered_mapIdiNS_4hashIdEENS_8equal_toIdEENS_9allocatorINS_4pairIKdiEEEEE3endB7v160006Ev, symObjAddr: 0xFBE4, symBinAddr: 0x100011698, symSize: 0x38 }
  - { offsetInCU: 0x1FF3E, offset: 0x1FF3E, size: 0x8, addend: 0x0, symName: __ZNKSt3__125__hash_map_const_iteratorINS_21__hash_const_iteratorIPNS_11__hash_nodeINS_17__hash_value_typeIdiEEPvEEEEEptB7v160006Ev, symObjAddr: 0xFC80, symBinAddr: 0x100011734, symSize: 0x2C }
  - { offsetInCU: 0x1FF64, offset: 0x1FF64, size: 0x8, addend: 0x0, symName: __ZNKSt3__112__hash_tableINS_17__hash_value_typeIdiEENS_22__unordered_map_hasherIdS2_NS_4hashIdEENS_8equal_toIdEELb1EEENS_21__unordered_map_equalIdS2_S7_S5_Lb1EEENS_9allocatorIS2_EEE4findIdEENS_21__hash_const_iteratorIPNS_11__hash_nodeIS2_PvEEEERKT_, symObjAddr: 0xFCAC, symBinAddr: 0x100011760, symSize: 0x1BC }
  - { offsetInCU: 0x1FFEF, offset: 0x1FFEF, size: 0x8, addend: 0x0, symName: __ZNSt3__125__hash_map_const_iteratorINS_21__hash_const_iteratorIPNS_11__hash_nodeINS_17__hash_value_typeIdiEEPvEEEEEC1B7v160006ES8_, symObjAddr: 0xFE68, symBinAddr: 0x10001191C, symSize: 0x34 }
  - { offsetInCU: 0x20028, offset: 0x20028, size: 0x8, addend: 0x0, symName: __ZNKSt3__112__hash_tableINS_17__hash_value_typeIdiEENS_22__unordered_map_hasherIdS2_NS_4hashIdEENS_8equal_toIdEELb1EEENS_21__unordered_map_equalIdS2_S7_S5_Lb1EEENS_9allocatorIS2_EEE13hash_functionB7v160006Ev, symObjAddr: 0xFE9C, symBinAddr: 0x100011950, symSize: 0x28 }
  - { offsetInCU: 0x2004E, offset: 0x2004E, size: 0x8, addend: 0x0, symName: __ZNKSt3__112__hash_tableINS_17__hash_value_typeIdiEENS_22__unordered_map_hasherIdS2_NS_4hashIdEENS_8equal_toIdEELb1EEENS_21__unordered_map_equalIdS2_S7_S5_Lb1EEENS_9allocatorIS2_EEE6key_eqB7v160006Ev, symObjAddr: 0xFEC4, symBinAddr: 0x100011978, symSize: 0x28 }
  - { offsetInCU: 0x20074, offset: 0x20074, size: 0x8, addend: 0x0, symName: __ZNSt3__121__hash_const_iteratorIPNS_11__hash_nodeINS_17__hash_value_typeIdiEEPvEEEC1B7v160006EPNS_16__hash_node_baseIS6_EEPKv, symObjAddr: 0xFEEC, symBinAddr: 0x1000119A0, symSize: 0x3C }
  - { offsetInCU: 0x200BC, offset: 0x200BC, size: 0x8, addend: 0x0, symName: __ZNKSt3__112__hash_tableINS_17__hash_value_typeIdiEENS_22__unordered_map_hasherIdS2_NS_4hashIdEENS_8equal_toIdEELb1EEENS_21__unordered_map_equalIdS2_S7_S5_Lb1EEENS_9allocatorIS2_EEE3endEv, symObjAddr: 0xFF28, symBinAddr: 0x1000119DC, symSize: 0x30 }
  - { offsetInCU: 0x200E4, offset: 0x200E4, size: 0x8, addend: 0x0, symName: __ZNKSt3__117__compressed_pairImNS_22__unordered_map_hasherIdNS_17__hash_value_typeIdiEENS_4hashIdEENS_8equal_toIdEELb1EEEE6secondB7v160006Ev, symObjAddr: 0xFF58, symBinAddr: 0x100011A0C, symSize: 0x24 }
  - { offsetInCU: 0x2010A, offset: 0x2010A, size: 0x8, addend: 0x0, symName: __ZNKSt3__122__compressed_pair_elemINS_22__unordered_map_hasherIdNS_17__hash_value_typeIdiEENS_4hashIdEENS_8equal_toIdEELb1EEELi1ELb1EE5__getB7v160006Ev, symObjAddr: 0xFF7C, symBinAddr: 0x100011A30, symSize: 0x14 }
  - { offsetInCU: 0x20130, offset: 0x20130, size: 0x8, addend: 0x0, symName: __ZNKSt3__117__compressed_pairIfNS_21__unordered_map_equalIdNS_17__hash_value_typeIdiEENS_8equal_toIdEENS_4hashIdEELb1EEEE6secondB7v160006Ev, symObjAddr: 0xFF90, symBinAddr: 0x100011A44, symSize: 0x24 }
  - { offsetInCU: 0x20156, offset: 0x20156, size: 0x8, addend: 0x0, symName: __ZNKSt3__122__compressed_pair_elemINS_21__unordered_map_equalIdNS_17__hash_value_typeIdiEENS_8equal_toIdEENS_4hashIdEELb1EEELi1ELb1EE5__getB7v160006Ev, symObjAddr: 0xFFB4, symBinAddr: 0x100011A68, symSize: 0x14 }
  - { offsetInCU: 0x2017C, offset: 0x2017C, size: 0x8, addend: 0x0, symName: __ZNSt3__121__hash_const_iteratorIPNS_11__hash_nodeINS_17__hash_value_typeIdiEEPvEEEC2B7v160006EPNS_16__hash_node_baseIS6_EEPKv, symObjAddr: 0xFFC8, symBinAddr: 0x100011A7C, symSize: 0x24 }
  - { offsetInCU: 0x201C4, offset: 0x201C4, size: 0x8, addend: 0x0, symName: __ZNSt3__125__hash_map_const_iteratorINS_21__hash_const_iteratorIPNS_11__hash_nodeINS_17__hash_value_typeIdiEEPvEEEEEC2B7v160006ES8_, symObjAddr: 0xFFEC, symBinAddr: 0x100011AA0, symSize: 0x20 }
  - { offsetInCU: 0x201FD, offset: 0x201FD, size: 0x8, addend: 0x0, symName: __ZNSt12out_of_rangeC1B7v160006EPKc, symObjAddr: 0x1003C, symBinAddr: 0x100011AF0, symSize: 0x34 }
  - { offsetInCU: 0x20235, offset: 0x20235, size: 0x8, addend: 0x0, symName: __ZNSt12out_of_rangeC2B7v160006EPKc, symObjAddr: 0x10070, symBinAddr: 0x100011B24, symSize: 0x4C }
  - { offsetInCU: 0x2026D, offset: 0x2026D, size: 0x8, addend: 0x0, symName: __ZNSt3__114pointer_traitsIPKNS_4pairIKdiEEE10pointer_toB7v160006ERS4_, symObjAddr: 0x100BC, symBinAddr: 0x100011B70, symSize: 0x14 }
  - { offsetInCU: 0x20290, offset: 0x20290, size: 0x8, addend: 0x0, symName: __ZNKSt3__121__hash_const_iteratorIPNS_11__hash_nodeINS_17__hash_value_typeIdiEEPvEEEptB7v160006Ev, symObjAddr: 0x100D0, symBinAddr: 0x100011B84, symSize: 0x30 }
  - { offsetInCU: 0x202B6, offset: 0x202B6, size: 0x8, addend: 0x0, symName: __ZNSt3__114pointer_traitsIPKNS_17__hash_value_typeIdiEEE10pointer_toB7v160006ERS3_, symObjAddr: 0x10100, symBinAddr: 0x100011BB4, symSize: 0x14 }
  - { offsetInCU: 0x202D9, offset: 0x202D9, size: 0x8, addend: 0x0, symName: __ZNK10PriceLevel9orderInfoEv, symObjAddr: 0x10114, symBinAddr: 0x100011BC8, symSize: 0x1C4 }
  - { offsetInCU: 0x2036E, offset: 0x2036E, size: 0x8, addend: 0x0, symName: __ZNSt3__119basic_ostringstreamIcNS_11char_traitsIcEENS_9allocatorIcEEEC1B7v160006Ev, symObjAddr: 0x102D8, symBinAddr: 0x100011D8C, symSize: 0xF8 }
  - { offsetInCU: 0x20398, offset: 0x20398, size: 0x8, addend: 0x0, symName: __ZNKSt3__119basic_ostringstreamIcNS_11char_traitsIcEENS_9allocatorIcEEE3strB7v160006Ev, symObjAddr: 0x103D0, symBinAddr: 0x100011E84, symSize: 0x30 }
  - { offsetInCU: 0x203C3, offset: 0x203C3, size: 0x8, addend: 0x0, symName: __ZNSt3__119basic_ostringstreamIcNS_11char_traitsIcEENS_9allocatorIcEEED1Ev, symObjAddr: 0x10400, symBinAddr: 0x100011EB4, symSize: 0x70 }
  - { offsetInCU: 0x203F0, offset: 0x203F0, size: 0x8, addend: 0x0, symName: __ZNSt3__19basic_iosIcNS_11char_traitsIcEEEC2B7v160006Ev, symObjAddr: 0x10470, symBinAddr: 0x100011F24, symSize: 0x44 }
  - { offsetInCU: 0x2041A, offset: 0x2041A, size: 0x8, addend: 0x0, symName: __ZNSt3__113basic_ostreamIcNS_11char_traitsIcEEEC2B7v160006EPNS_15basic_streambufIcS2_EE, symObjAddr: 0x104B4, symBinAddr: 0x100011F68, symSize: 0x60 }
  - { offsetInCU: 0x2045F, offset: 0x2045F, size: 0x8, addend: 0x0, symName: __ZNSt3__115basic_stringbufIcNS_11char_traitsIcEENS_9allocatorIcEEEC1B7v160006Ej, symObjAddr: 0x10514, symBinAddr: 0x100011FC8, symSize: 0x34 }
  - { offsetInCU: 0x20497, offset: 0x20497, size: 0x8, addend: 0x0, symName: __ZNSt3__18ios_baseC2B7v160006Ev, symObjAddr: 0x10548, symBinAddr: 0x100011FFC, symSize: 0x24 }
  - { offsetInCU: 0x204C1, offset: 0x204C1, size: 0x8, addend: 0x0, symName: __ZNSt3__19basic_iosIcNS_11char_traitsIcEEE4initB7v160006EPNS_15basic_streambufIcS2_EE, symObjAddr: 0x1056C, symBinAddr: 0x100012020, symSize: 0x44 }
  - { offsetInCU: 0x204F8, offset: 0x204F8, size: 0x8, addend: 0x0, symName: __ZNSt3__115basic_stringbufIcNS_11char_traitsIcEENS_9allocatorIcEEEC2B7v160006Ej, symObjAddr: 0x105B0, symBinAddr: 0x100012064, symSize: 0x90 }
  - { offsetInCU: 0x20530, offset: 0x20530, size: 0x8, addend: 0x0, symName: __ZNSt3__119basic_ostringstreamIcNS_11char_traitsIcEENS_9allocatorIcEEED2Ev, symObjAddr: 0x10640, symBinAddr: 0x1000120F4, symSize: 0x9C }
  - { offsetInCU: 0x2056A, offset: 0x2056A, size: 0x8, addend: 0x0, symName: __ZTv0_n24_NSt3__119basic_ostringstreamIcNS_11char_traitsIcEENS_9allocatorIcEEED1Ev, symObjAddr: 0x106DC, symBinAddr: 0x100012190, symSize: 0x28 }
  - { offsetInCU: 0x20586, offset: 0x20586, size: 0x8, addend: 0x0, symName: __ZNSt3__115basic_stringbufIcNS_11char_traitsIcEENS_9allocatorIcEEED1Ev, symObjAddr: 0x10704, symBinAddr: 0x1000121B8, symSize: 0x2C }
  - { offsetInCU: 0x205B3, offset: 0x205B3, size: 0x8, addend: 0x0, symName: __ZNSt3__115basic_stringbufIcNS_11char_traitsIcEENS_9allocatorIcEEED2Ev, symObjAddr: 0x10730, symBinAddr: 0x1000121E4, symSize: 0x78 }
  - { offsetInCU: 0x205E0, offset: 0x205E0, size: 0x8, addend: 0x0, symName: __ZN6EngineD2Ev, symObjAddr: 0x107A8, symBinAddr: 0x10001225C, symSize: 0xE4 }
...
